

Microchip MPLAB XC8 Assembler V2.40 build 20220703182018 
                                                                                               Mon Jan 08 14:45:18 2024

Microchip MPLAB XC8 C Compiler v2.40 (Free license) build 20220703182018 Og1 
     1                           	processor	18F4550
     2                           	fnconf	rparam,??,?,0
     3                           	pagewidth 120
     4                           	opt	flic
     5                           	psect	idataCOMRAM,global,class=CODE,delta=1,noexec
     6                           	psect	idataBANK0,global,class=CODE,delta=1,noexec
     7                           	psect	smallconst,global,reloc=2,class=SMALLCONST,delta=1,noexec
     8                           	psect	cinit,global,reloc=2,class=CODE,delta=1
     9                           	psect	bssCOMRAM,global,class=COMRAM,space=1,delta=1,lowdata,noexec
    10                           	psect	dataCOMRAM,global,class=COMRAM,space=1,delta=1,lowdata,noexec
    11                           	psect	bssBANK0,global,class=BANK0,space=1,delta=1,lowdata,noexec
    12                           	psect	dataBANK0,global,class=BANK0,space=1,delta=1,lowdata,noexec
    13                           	psect	bssBANK1,global,class=BANK1,space=1,delta=1,lowdata,noexec
    14                           	psect	cstackBANK0,global,class=BANK0,space=1,delta=1,lowdata,noexec
    15                           	psect	cstackCOMRAM,global,class=COMRAM,space=1,delta=1,lowdata,noexec
    16                           	psect	text0,global,reloc=2,class=CODE,delta=1
    17                           	psect	text1,global,reloc=2,class=CODE,delta=1
    18                           	psect	text2,global,reloc=2,class=CODE,delta=1
    19                           	psect	text3,global,reloc=2,class=CODE,delta=1,group=3
    20                           	psect	text4,global,reloc=2,class=CODE,delta=1,group=1
    21                           	psect	text5,global,reloc=2,class=CODE,delta=1,group=1
    22                           	psect	text6,global,reloc=2,class=CODE,delta=1,group=1
    23                           	psect	text7,global,reloc=2,class=CODE,delta=1,group=1
    24                           	psect	text8,global,reloc=2,class=CODE,delta=1,group=3
    25                           	psect	text9,global,reloc=2,class=CODE,delta=1,group=3
    26                           	psect	text10,global,reloc=2,class=CODE,delta=1,group=3
    27                           	psect	text11,global,reloc=2,class=CODE,delta=1,group=3
    28                           	psect	text12,global,reloc=2,class=CODE,delta=1,group=2
    29                           	psect	text13,global,reloc=2,class=CODE,delta=1,group=2
    30                           	psect	text14,global,reloc=2,class=CODE,delta=1,group=3
    31                           	psect	text15,global,reloc=2,class=CODE,delta=1,group=3
    32                           	psect	text16,global,reloc=2,class=CODE,delta=1,group=3
    33                           	psect	text17,global,reloc=2,class=CODE,delta=1,group=2
    34                           	psect	text18,global,reloc=2,class=CODE,delta=1
    35                           	psect	text19,global,reloc=2,class=CODE,delta=1,group=2
    36                           	psect	text20,global,reloc=2,class=CODE,delta=1,group=2
    37                           	psect	text21,global,reloc=2,class=CODE,delta=1
    38                           	psect	text22,global,reloc=2,class=CODE,delta=1
    39                           	psect	text23,global,reloc=2,class=CODE,delta=1,group=2
    40                           	psect	text24,global,reloc=2,class=CODE,delta=1
    41                           	psect	text25,global,reloc=2,class=CODE,delta=1,group=2
    42                           	psect	text26,global,reloc=2,class=CODE,delta=1,group=2
    43                           	psect	text27,global,reloc=2,class=CODE,delta=1,group=2
    44                           	psect	text28,global,reloc=2,class=CODE,delta=1,group=2
    45                           	psect	text29,global,reloc=2,class=CODE,delta=1
    46                           	psect	text30,global,reloc=2,class=CODE,delta=1
    47                           	psect	text31,global,reloc=2,class=CODE,delta=1
    48                           	psect	text32,global,reloc=2,class=CODE,delta=1
    49                           	psect	text33,global,reloc=2,class=CODE,delta=1
    50                           	psect	text34,global,reloc=2,class=CODE,delta=1
    51                           	psect	intcode,global,reloc=2,class=CODE,delta=1
    52                           	psect	intcode_body,global,reloc=2,class=CODE,delta=1
    53                           	psect	text36,global,reloc=2,class=CODE,delta=1
    54                           	psect	text37,global,reloc=2,class=CODE,delta=1
    55                           	psect	text38,global,reloc=2,class=CODE,delta=1
    56                           	psect	text39,global,reloc=2,class=CODE,delta=1
    57                           	psect	intsave_regs,global,class=BIGRAM,space=1,delta=1,noexec
    58                           	psect	rparam,global,class=COMRAM,space=1,delta=1,noexec
    59                           	psect	temp,global,ovrld,common,class=COMRAM,space=1,delta=1
    60                           	psect	idloc,global,abs,ovrld,class=IDLOC,space=5,delta=1,noexec
    61                           	psect	config,global,abs,ovrld,class=CONFIG,space=4,delta=1,noexec
    62   000000                     
    63                           ; Version 2.40
    64                           ; Generated 17/11/2021 GMT
    65                           ; 
    66                           ; Copyright © 2021, Microchip Technology Inc. and its subsidiaries ("Microchip")
    67                           ; All rights reserved.
    68                           ; 
    69                           ; This software is developed by Microchip Technology Inc. and its subsidiaries ("Microch
      +                          ip").
    70                           ; 
    71                           ; Redistribution and use in source and binary forms, with or without modification, are
    72                           ; permitted provided that the following conditions are met:
    73                           ; 
    74                           ;     1. Redistributions of source code must retain the above copyright notice, this lis
      +                          t of
    75                           ;        conditions and the following disclaimer.
    76                           ; 
    77                           ;     2. Redistributions in binary form must reproduce the above copyright notice, this 
      +                          list
    78                           ;        of conditions and the following disclaimer in the documentation and/or other
    79                           ;        materials provided with the distribution. Publication is not required when
    80                           ;        this file is used in an embedded application.
    81                           ; 
    82                           ;     3. Microchip's name may not be used to endorse or promote products derived from th
      +                          is
    83                           ;        software without specific prior written permission.
    84                           ; 
    85                           ; THIS SOFTWARE IS PROVIDED BY MICROCHIP "AS IS" AND ANY EXPRESS OR IMPLIED WARRANTIES,
    86                           ; INCLUDING, BUT NOT LIMITED TO, THE IMPLIED WARRANTIES OF MERCHANTABILITY AND FITNESS F
      +                          OR
    87                           ; PURPOSE ARE DISCLAIMED.  IN NO EVENT SHALL MICROCHIP BE LIABLE FOR ANY DIRECT, INDIREC
      +                          T,
    88                           ; INCIDENTAL, SPECIAL, EXEMPLARY, OR CONSEQUENTIAL DAMAGES (INCLUDING BUT NOT LIMITED TO
    89                           ; PROCUREMENT OF SUBSTITUTE GOODS OR SERVICES; LOSS OF USE, DATA OR PROFITS; OR BUSINESS
    90                           ; INTERRUPTION) HOWSOEVER CAUSED AND ON ANY THEORY OF LIABILITY, WHETHER IN CONTRACT, ST
      +                          RICT
    91                           ; LIABILITY, OR TORT (INCLUDING NEGLIGENCE OR OTHERWISE) ARISING IN ANY WAY OUT OF THE U
      +                          SE OF
    92                           ; THIS SOFTWARE, EVEN IF ADVISED OF THE POSSIBILITY OF SUCH DAMAGE.
    93                           ; 
    94                           ; 
    95                           ; Code-generator required, PIC18F4550 Definitions
    96                           ; 
    97                           ; SFR Addresses
    98   000000                     
    99                           	psect	idataCOMRAM
   100   0037C8                     __pidataCOMRAM:
   101                           	callstack 0
   102                           
   103                           ;initializer for _kd
   104   0037C8  126F               	dw	4719
   105   0037CA  3A83               	dw	14979
   106                           
   107                           ;initializer for _ki
   108   0037CC  CCCD               	dw	52429
   109   0037CE  3E4C               	dw	15948
   110                           
   111                           ;initializer for _factorDeConversion
   112   0037D0  0000               	dw	0
   113   0037D2  4000               	dw	16384
   114                           
   115                           ;initializer for _aux
   116   0037D4  20                 	db	32
   117   0037D5  00                 	db	0
   118   0037D6  00                 	db	0
   119   0037D7  00                 	db	0
   120   0037D8  00                 	db	0
   121   0037D9  00                 	db	0
   122   0037DA  00                 	db	0
   123   0037DB  00                 	db	0
   124   0037DC  00                 	db	0
   125   0037DD  00                 	db	0
   126   0037DE  00                 	db	0
   127   0037DF  00                 	db	0
   128   0037E0  00                 	db	0
   129   0037E1  00                 	db	0
   130   0037E2  00                 	db	0
   131   0037E3  00                 	db	0
   132   0037E4  00                 	db	0
   133   0037E5  00                 	db	0
   134   0037E6  00                 	db	0
   135   0037E7  00                 	db	0
   136                           
   137                           	psect	idataBANK0
   138   003824                     __pidataBANK0:
   139                           	callstack 0
   140                           
   141                           ;initializer for _kp
   142   003824  0000               	dw	0
   143   003826  3F80               	dw	16256
   144                           
   145                           ;initializer for _setpoint_rpm
   146   003828  0190               	dw	400
   147   000000                     _TRISCbits	set	3988
   148   000000                     _TRISDbits	set	3989
   149   000000                     _T2CON	set	4042
   150   000000                     _TMR0IE	set	32661
   151   000000                     _TMR0IF	set	32658
   152   000000                     _LATDbits	set	3980
   153   000000                     _TRISB	set	3987
   154   000000                     _ADCON1	set	4033
   155   000000                     _TMR0L	set	4054
   156   000000                     _TMR0H	set	4055
   157   000000                     _INTCONbits	set	4082
   158   000000                     _INTCON2bits	set	4081
   159   000000                     _T2CONbits	set	4042
   160   000000                     _T0CONbits	set	4053
   161   000000                     _CCP1CONbits	set	4029
   162   000000                     _CCPR1L	set	4030
   163   000000                     _TMR2	set	4044
   164   000000                     _PR2	set	4043
   165                           
   166                           	psect	smallconst
   167   000800                     __psmallconst:
   168                           	callstack 0
   169   000800  00                 	db	0
   170   000801  20                 	db	32
   171   000802  20                 	db	32
   172   000803  20                 	db	32
   173   000804  20                 	db	32
   174   000805  20                 	db	32
   175   000806  20                 	db	32
   176   000807  20                 	db	32
   177   000808  20                 	db	32
   178   000809  20                 	db	32
   179   00080A  20                 	db	32
   180   00080B  20                 	db	32
   181   00080C  20                 	db	32
   182   00080D  20                 	db	32
   183   00080E  20                 	db	32
   184   00080F  20                 	db	32
   185   000810  20                 	db	32
   186   000811  20                 	db	32
   187   000812  20                 	db	32
   188   000813  20                 	db	32
   189   000814  20                 	db	32
   190   000815  00                 	db	0
   191   000816                     STR_3:
   192   000816  20                 	db	32
   193   000817  20                 	db	32
   194   000818  20                 	db	32
   195   000819  20                 	db	32
   196   00081A  20                 	db	32
   197   00081B  54                 	db	84	;'T'
   198   00081C  65                 	db	101	;'e'
   199   00081D  73                 	db	115	;'s'
   200   00081E  74                 	db	116	;'t'
   201   00081F  20                 	db	32
   202   000820  50                 	db	80	;'P'
   203   000821  49                 	db	73	;'I'
   204   000822  44                 	db	68	;'D'
   205   000823  20                 	db	32
   206   000824  20                 	db	32
   207   000825  20                 	db	32
   208   000826  20                 	db	32
   209   000827  20                 	db	32
   210   000828  20                 	db	32
   211   000829  20                 	db	32
   212   00082A  00                 	db	0
   213   00082B                     STR_1:
   214   00082B  52                 	db	82	;'R'
   215   00082C  50                 	db	80	;'P'
   216   00082D  4D                 	db	77	;'M'
   217   00082E  5F                 	db	95	;'_'
   218   00082F  50                 	db	80	;'P'
   219   000830  56                 	db	86	;'V'
   220   000831  20                 	db	32
   221   000832  20                 	db	32
   222   000833  2D                 	db	45
   223   000834  3E                 	db	62	;'>'
   224   000835  20                 	db	32
   225   000836  25                 	db	37
   226   000837  30                 	db	48	;'0'
   227   000838  34                 	db	52	;'4'
   228   000839  64                 	db	100	;'d'
   229   00083A  00                 	db	0
   230   00083B                     STR_2:
   231   00083B  52                 	db	82	;'R'
   232   00083C  50                 	db	80	;'P'
   233   00083D  4D                 	db	77	;'M'
   234   00083E  5F                 	db	95	;'_'
   235   00083F  53                 	db	83	;'S'
   236   000840  56                 	db	86	;'V'
   237   000841  20                 	db	32
   238   000842  20                 	db	32
   239   000843  2D                 	db	45
   240   000844  3E                 	db	62	;'>'
   241   000845  20                 	db	32
   242   000846  25                 	db	37
   243   000847  30                 	db	48	;'0'
   244   000848  34                 	db	52	;'4'
   245   000849  64                 	db	100	;'d'
   246   00084A  00                 	db	0
   247   00084B  00                 	db	0	; dummy byte at the end
   248   000000                     
   249                           ; #config settings
   250                           
   251                           	psect	cinit
   252   003522                     __pcinit:
   253                           	callstack 0
   254   003522                     start_initialization:
   255                           	callstack 0
   256   003522                     __initialization:
   257                           	callstack 0
   258                           
   259                           ; Initialize objects allocated to BANK0 (6 bytes)
   260                           ; load TBLPTR registers with __pidataBANK0
   261   003522  0E24               	movlw	low __pidataBANK0
   262   003524  6EF6               	movwf	tblptrl,c
   263   003526  0E38               	movlw	high __pidataBANK0
   264   003528  6EF7               	movwf	tblptrh,c
   265   00352A  0E00               	movlw	low (__pidataBANK0 shr (0+16))
   266   00352C  6EF8               	movwf	tblptru,c
   267   00352E  EE00  F0F7         	lfsr	0,__pdataBANK0
   268   003532  EE10 F006          	lfsr	1,6
   269   003536                     copy_data0:
   270   003536  0009               	tblrd		*+
   271   003538  CFF5 FFEE          	movff	tablat,postinc0
   272   00353C  50E5               	movf	postdec1,w,c
   273   00353E  50E1               	movf	fsr1l,w,c
   274   003540  E1FA               	bnz	copy_data0
   275                           
   276                           ; Initialize objects allocated to COMRAM (32 bytes)
   277                           ; load TBLPTR registers with __pidataCOMRAM
   278   003542  0EC8               	movlw	low __pidataCOMRAM
   279   003544  6EF6               	movwf	tblptrl,c
   280   003546  0E37               	movlw	high __pidataCOMRAM
   281   003548  6EF7               	movwf	tblptrh,c
   282   00354A  0E00               	movlw	low (__pidataCOMRAM shr (0+16))
   283   00354C  6EF8               	movwf	tblptru,c
   284   00354E  EE00  F03A         	lfsr	0,__pdataCOMRAM
   285   003552  EE10 F020          	lfsr	1,32
   286   003556                     copy_data1:
   287   003556  0009               	tblrd		*+
   288   003558  CFF5 FFEE          	movff	tablat,postinc0
   289   00355C  50E5               	movf	postdec1,w,c
   290   00355E  50E1               	movf	fsr1l,w,c
   291   003560  E1FA               	bnz	copy_data1
   292                           
   293                           ; Clear objects allocated to BANK1 (32 bytes)
   294   003562  EE01  F000         	lfsr	0,__pbssBANK1
   295   003566  0E20               	movlw	32
   296   003568                     clear_0:
   297   003568  6AEE               	clrf	postinc0,c
   298   00356A  06E8               	decf	wreg,f,c
   299   00356C  E1FD               	bnz	clear_0
   300                           
   301                           ; Clear objects allocated to BANK0 (33 bytes)
   302   00356E  EE00  F0D6         	lfsr	0,__pbssBANK0
   303   003572  0E21               	movlw	33
   304   003574                     clear_1:
   305   003574  6AEE               	clrf	postinc0,c
   306   003576  06E8               	decf	wreg,f,c
   307   003578  E1FD               	bnz	clear_1
   308                           
   309                           ; Clear objects allocated to COMRAM (3 bytes)
   310   00357A  6A5C               	clrf	(__pbssCOMRAM+2)& (0+255),c
   311   00357C  6A5B               	clrf	(__pbssCOMRAM+1)& (0+255),c
   312   00357E  6A5A               	clrf	__pbssCOMRAM& (0+255),c
   313   003580                     end_of_initialization:
   314                           	callstack 0
   315   003580                     __end_of__initialization:
   316                           	callstack 0
   317   003580  905D               	bcf	int$flags,0,c	;clear compiler interrupt flag (level 1)
   318   003582  925D               	bcf	int$flags,1,c	;clear compiler interrupt flag (level 2)
   319   003584  0E00               	movlw	low (__Lmediumconst shr (0+16))
   320   003586  6EF8               	movwf	tblptru,c
   321   003588  0100               	movlb	0
   322   00358A  EFDA  F017         	goto	_main	;jump to C main() function
   323                           
   324                           	psect	bssCOMRAM
   325   00005A                     __pbssCOMRAM:
   326                           	callstack 0
   327   00005A                     _flagTimer0:
   328                           	callstack 0
   329   00005A                     	ds	1
   330   00005B                     _contador:
   331                           	callstack 0
   332   00005B                     	ds	2
   333                           
   334                           	psect	dataCOMRAM
   335   00003A                     __pdataCOMRAM:
   336                           	callstack 0
   337   00003A                     _kd:
   338                           	callstack 0
   339   00003A                     	ds	4
   340   00003E                     _ki:
   341                           	callstack 0
   342   00003E                     	ds	4
   343   000042                     _factorDeConversion:
   344                           	callstack 0
   345   000042                     	ds	4
   346   000046                     _aux:
   347                           	callstack 0
   348   000046                     	ds	20
   349                           
   350                           	psect	bssBANK0
   351   0000D6                     __pbssBANK0:
   352                           	callstack 0
   353   0000D6                     _error2:
   354                           	callstack 0
   355   0000D6                     	ds	4
   356   0000DA                     _error1:
   357                           	callstack 0
   358   0000DA                     	ds	4
   359   0000DE                     _error:
   360                           	callstack 0
   361   0000DE                     	ds	4
   362   0000E2                     _cv1:
   363                           	callstack 0
   364   0000E2                     	ds	4
   365   0000E6                     _cv:
   366                           	callstack 0
   367   0000E6                     	ds	4
   368   0000EA                     _duty:
   369                           	callstack 0
   370   0000EA                     	ds	4
   371   0000EE                     _width:
   372                           	callstack 0
   373   0000EE                     	ds	2
   374   0000F0                     _prec:
   375                           	callstack 0
   376   0000F0                     	ds	2
   377   0000F2                     _PV_RPM:
   378                           	callstack 0
   379   0000F2                     	ds	2
   380   0000F4                     _reg10bits:
   381                           	callstack 0
   382   0000F4                     	ds	2
   383   0000F6                     _flags:
   384                           	callstack 0
   385   0000F6                     	ds	1
   386                           
   387                           	psect	dataBANK0
   388   0000F7                     __pdataBANK0:
   389                           	callstack 0
   390   0000F7                     _kp:
   391                           	callstack 0
   392   0000F7                     	ds	4
   393   0000FB                     _setpoint_rpm:
   394                           	callstack 0
   395   0000FB                     	ds	2
   396                           
   397                           	psect	bssBANK1
   398   000100                     __pbssBANK1:
   399                           	callstack 0
   400   000100                     _dbuf:
   401                           	callstack 0
   402   000100                     	ds	32
   403                           
   404                           	psect	cstackBANK0
   405   000060                     __pcstackBANK0:
   406                           	callstack 0
   407   000060                     ??_enviar_dato:
   408   000060                     ?_isdigit:
   409                           	callstack 0
   410   000060                     ?_isspace:
   411                           	callstack 0
   412   000060                     ?___wmul:
   413                           	callstack 0
   414   000060                     ?___xxtofl:
   415                           	callstack 0
   416   000060                     ?___aodiv:
   417                           	callstack 0
   418   000060                     ?___aomod:
   419                           	callstack 0
   420   000060                     ___wmul@multiplier:
   421                           	callstack 0
   422   000060                     isdigit@c:
   423                           	callstack 0
   424   000060                     isspace@c:
   425                           	callstack 0
   426   000060                     fputc@c:
   427                           	callstack 0
   428   000060                     ___flge@ff1:
   429                           	callstack 0
   430   000060                     ___xxtofl@val:
   431                           	callstack 0
   432   000060                     ___aodiv@dividend:
   433                           	callstack 0
   434   000060                     ___aomod@dividend:
   435                           	callstack 0
   436                           
   437                           ; 8 bytes @ 0x0
   438   000060                     	ds	2
   439   000062                     ??_isdigit:
   440   000062                     ??_isspace:
   441   000062                     enviar_dato@cmd:
   442                           	callstack 0
   443   000062                     ___wmul@multiplicand:
   444                           	callstack 0
   445   000062                     fputc@fp:
   446                           	callstack 0
   447                           
   448                           ; 2 bytes @ 0x2
   449   000062                     	ds	1
   450   000063                     ??_LCD_Init:
   451   000063                     LCD_Chr_Cp@letra:
   452                           	callstack 0
   453   000063                     LCD_Cmd@cmd:
   454                           	callstack 0
   455                           
   456                           ; 1 bytes @ 0x3
   457   000063                     	ds	1
   458   000064                     ??_fputc:
   459   000064                     ??___xxtofl:
   460   000064                     LCD_XY@column:
   461                           	callstack 0
   462   000064                     _isspace$1104:
   463                           	callstack 0
   464   000064                     ___wmul@product:
   465                           	callstack 0
   466   000064                     ___flge@ff2:
   467                           	callstack 0
   468                           
   469                           ; 4 bytes @ 0x4
   470   000064                     	ds	1
   471   000065                     ??_LCD_XY:
   472                           
   473                           ; 1 bytes @ 0x5
   474   000065                     	ds	1
   475   000066                     ?_atoi:
   476                           	callstack 0
   477   000066                     atoi@s:
   478                           	callstack 0
   479                           
   480                           ; 2 bytes @ 0x6
   481   000066                     	ds	1
   482   000067                     LCD_XY@row:
   483                           	callstack 0
   484                           
   485                           ; 1 bytes @ 0x7
   486   000067                     	ds	1
   487   000068                     ??_atoi:
   488   000068                     ??___flge:
   489   000068                     LCD_Out@column:
   490                           	callstack 0
   491   000068                     ___xxtofl@sign:
   492                           	callstack 0
   493   000068                     ___aodiv@divisor:
   494                           	callstack 0
   495   000068                     ___aomod@divisor:
   496                           	callstack 0
   497                           
   498                           ; 8 bytes @ 0x8
   499   000068                     	ds	1
   500   000069                     ___xxtofl@exp:
   501                           	callstack 0
   502   000069                     LCD_Out@text:
   503                           	callstack 0
   504   000069                     fputs@s:
   505                           	callstack 0
   506                           
   507                           ; 2 bytes @ 0x9
   508   000069                     	ds	1
   509   00006A                     ___xxtofl@arg:
   510                           	callstack 0
   511                           
   512                           ; 4 bytes @ 0xA
   513   00006A                     	ds	1
   514   00006B                     LCD_Out@row:
   515                           	callstack 0
   516   00006B                     atoi@neg:
   517                           	callstack 0
   518   00006B                     fputs@fp:
   519                           	callstack 0
   520                           
   521                           ; 2 bytes @ 0xB
   522   00006B                     	ds	2
   523   00006D                     fputs@c:
   524                           	callstack 0
   525   00006D                     atoi@n:
   526                           	callstack 0
   527                           
   528                           ; 2 bytes @ 0xD
   529   00006D                     	ds	1
   530   00006E                     ?___fldiv:
   531                           	callstack 0
   532   00006E                     fputs@i:
   533                           	callstack 0
   534   00006E                     ___fldiv@b:
   535                           	callstack 0
   536                           
   537                           ; 4 bytes @ 0xE
   538   00006E                     	ds	2
   539   000070                     ___aodiv@counter:
   540                           	callstack 0
   541   000070                     ___aomod@counter:
   542                           	callstack 0
   543   000070                     pad@fp:
   544                           	callstack 0
   545                           
   546                           ; 2 bytes @ 0x10
   547   000070                     	ds	1
   548   000071                     ___aodiv@sign:
   549                           	callstack 0
   550   000071                     ___aomod@sign:
   551                           	callstack 0
   552                           
   553                           ; 1 bytes @ 0x11
   554   000071                     	ds	1
   555   000072                     ?_abs:
   556                           	callstack 0
   557   000072                     pad@buf:
   558                           	callstack 0
   559   000072                     abs@a:
   560                           	callstack 0
   561   000072                     ___fldiv@a:
   562                           	callstack 0
   563   000072                     ___aodiv@quotient:
   564                           	callstack 0
   565                           
   566                           ; 8 bytes @ 0x12
   567   000072                     	ds	2
   568   000074                     ??_abs:
   569   000074                     pad@p:
   570                           	callstack 0
   571                           
   572                           ; 2 bytes @ 0x14
   573   000074                     	ds	2
   574   000076                     ??___fldiv:
   575   000076                     ??_pad:
   576                           
   577                           ; 1 bytes @ 0x16
   578   000076                     	ds	1
   579   000077                     pad@i:
   580                           	callstack 0
   581                           
   582                           ; 2 bytes @ 0x17
   583   000077                     	ds	2
   584   000079                     pad@w:
   585                           	callstack 0
   586                           
   587                           ; 2 bytes @ 0x19
   588   000079                     	ds	1
   589   00007A                     ___fldiv@rem:
   590                           	callstack 0
   591                           
   592                           ; 4 bytes @ 0x1A
   593   00007A                     	ds	1
   594   00007B                     dtoa@fp:
   595                           	callstack 0
   596                           
   597                           ; 2 bytes @ 0x1B
   598   00007B                     	ds	2
   599   00007D                     dtoa@d:
   600                           	callstack 0
   601                           
   602                           ; 8 bytes @ 0x1D
   603   00007D                     	ds	1
   604   00007E                     ___fldiv@sign:
   605                           	callstack 0
   606                           
   607                           ; 1 bytes @ 0x1E
   608   00007E                     	ds	1
   609   00007F                     ___fldiv@new_exp:
   610                           	callstack 0
   611                           
   612                           ; 2 bytes @ 0x1F
   613   00007F                     	ds	2
   614   000081                     ___fldiv@grs:
   615                           	callstack 0
   616                           
   617                           ; 4 bytes @ 0x21
   618   000081                     	ds	4
   619   000085                     ??_dtoa:
   620   000085                     ___fldiv@bexp:
   621                           	callstack 0
   622                           
   623                           ; 1 bytes @ 0x25
   624   000085                     	ds	1
   625   000086                     ___fldiv@aexp:
   626                           	callstack 0
   627                           
   628                           ; 1 bytes @ 0x26
   629   000086                     	ds	1
   630   000087                     ?___flmul:
   631                           	callstack 0
   632   000087                     ___flmul@b:
   633                           	callstack 0
   634                           
   635                           ; 4 bytes @ 0x27
   636   000087                     	ds	4
   637   00008B                     ___flmul@a:
   638                           	callstack 0
   639                           
   640                           ; 4 bytes @ 0x2B
   641   00008B                     	ds	2
   642   00008D                     _dtoa$1055:
   643                           	callstack 0
   644                           
   645                           ; 2 bytes @ 0x2D
   646   00008D                     	ds	2
   647   00008F                     ??___flmul:
   648   00008F                     dtoa@p:
   649                           	callstack 0
   650                           
   651                           ; 2 bytes @ 0x2F
   652   00008F                     	ds	2
   653   000091                     dtoa@w:
   654                           	callstack 0
   655                           
   656                           ; 2 bytes @ 0x31
   657   000091                     	ds	2
   658   000093                     ___flmul@sign:
   659                           	callstack 0
   660   000093                     dtoa@n:
   661                           	callstack 0
   662                           
   663                           ; 8 bytes @ 0x33
   664   000093                     	ds	1
   665   000094                     ___flmul@grs:
   666                           	callstack 0
   667                           
   668                           ; 4 bytes @ 0x34
   669   000094                     	ds	4
   670   000098                     ___flmul@aexp:
   671                           	callstack 0
   672                           
   673                           ; 1 bytes @ 0x38
   674   000098                     	ds	1
   675   000099                     ___flmul@bexp:
   676                           	callstack 0
   677                           
   678                           ; 1 bytes @ 0x39
   679   000099                     	ds	1
   680   00009A                     ___flmul@prod:
   681                           	callstack 0
   682                           
   683                           ; 4 bytes @ 0x3A
   684   00009A                     	ds	1
   685   00009B                     dtoa@i:
   686                           	callstack 0
   687                           
   688                           ; 2 bytes @ 0x3B
   689   00009B                     	ds	2
   690   00009D                     dtoa@s:
   691                           	callstack 0
   692                           
   693                           ; 1 bytes @ 0x3D
   694   00009D                     	ds	1
   695   00009E                     ___flmul@temp:
   696                           	callstack 0
   697   00009E                     vfpfcnvrt@fp:
   698                           	callstack 0
   699                           
   700                           ; 2 bytes @ 0x3E
   701   00009E                     	ds	2
   702   0000A0                     ?___fladd:
   703                           	callstack 0
   704   0000A0                     vfpfcnvrt@fmt:
   705                           	callstack 0
   706   0000A0                     ___fladd@b:
   707                           	callstack 0
   708                           
   709                           ; 4 bytes @ 0x40
   710   0000A0                     	ds	2
   711   0000A2                     vfpfcnvrt@ap:
   712                           	callstack 0
   713                           
   714                           ; 2 bytes @ 0x42
   715   0000A2                     	ds	2
   716   0000A4                     ??_vfpfcnvrt:
   717   0000A4                     ___fladd@a:
   718                           	callstack 0
   719                           
   720                           ; 4 bytes @ 0x44
   721   0000A4                     	ds	3
   722   0000A7                     vfpfcnvrt@convarg:
   723                           	callstack 0
   724                           
   725                           ; 8 bytes @ 0x47
   726   0000A7                     	ds	1
   727   0000A8                     ??___fladd:
   728                           
   729                           ; 1 bytes @ 0x48
   730   0000A8                     	ds	4
   731   0000AC                     ___fladd@signs:
   732                           	callstack 0
   733                           
   734                           ; 1 bytes @ 0x4C
   735   0000AC                     	ds	1
   736   0000AD                     ___fladd@aexp:
   737                           	callstack 0
   738                           
   739                           ; 1 bytes @ 0x4D
   740   0000AD                     	ds	1
   741   0000AE                     ___fladd@bexp:
   742                           	callstack 0
   743                           
   744                           ; 1 bytes @ 0x4E
   745   0000AE                     	ds	1
   746   0000AF                     ___fladd@grs:
   747                           	callstack 0
   748   0000AF                     vfpfcnvrt@done:
   749                           	callstack 0
   750                           
   751                           ; 2 bytes @ 0x4F
   752   0000AF                     	ds	1
   753   0000B0                     ?___flsub:
   754                           	callstack 0
   755   0000B0                     ?___fltol:
   756                           	callstack 0
   757   0000B0                     ___fltol@f1:
   758                           	callstack 0
   759   0000B0                     ___flsub@b:
   760                           	callstack 0
   761                           
   762                           ; 4 bytes @ 0x50
   763   0000B0                     	ds	1
   764   0000B1                     vfpfcnvrt@cp:
   765                           	callstack 0
   766                           
   767                           ; 2 bytes @ 0x51
   768   0000B1                     	ds	2
   769   0000B3                     ?_vfprintf:
   770                           	callstack 0
   771   0000B3                     vfprintf@fp:
   772                           	callstack 0
   773                           
   774                           ; 2 bytes @ 0x53
   775   0000B3                     	ds	1
   776   0000B4                     ??___fltol:
   777   0000B4                     ___flsub@a:
   778                           	callstack 0
   779                           
   780                           ; 4 bytes @ 0x54
   781   0000B4                     	ds	1
   782   0000B5                     vfprintf@fmt:
   783                           	callstack 0
   784                           
   785                           ; 2 bytes @ 0x55
   786   0000B5                     	ds	2
   787   0000B7                     vfprintf@ap:
   788                           	callstack 0
   789                           
   790                           ; 2 bytes @ 0x57
   791   0000B7                     	ds	1
   792   0000B8                     ?_pid:
   793                           	callstack 0
   794   0000B8                     ___fltol@sign1:
   795                           	callstack 0
   796   0000B8                     pid@velocidad:
   797                           	callstack 0
   798                           
   799                           ; 2 bytes @ 0x58
   800   0000B8                     	ds	1
   801   0000B9                     ___fltol@exp1:
   802                           	callstack 0
   803   0000B9                     vfprintf@cfmt:
   804                           	callstack 0
   805                           
   806                           ; 2 bytes @ 0x59
   807   0000B9                     	ds	1
   808   0000BA                     PWM_Init@f_trabajo:
   809                           	callstack 0
   810   0000BA                     PWM_Duty@ciclo_t:
   811                           	callstack 0
   812                           
   813                           ; 4 bytes @ 0x5A
   814   0000BA                     	ds	1
   815   0000BB                     ?_sprintf:
   816                           	callstack 0
   817   0000BB                     sprintf@s:
   818                           	callstack 0
   819                           
   820                           ; 2 bytes @ 0x5B
   821   0000BB                     	ds	1
   822   0000BC                     ??_pid:
   823   0000BC                     PWM_Init@pre_config:
   824                           	callstack 0
   825                           
   826                           ; 1 bytes @ 0x5C
   827   0000BC                     	ds	1
   828   0000BD                     ??_PWM_Init:
   829   0000BD                     sprintf@fmt:
   830                           	callstack 0
   831                           
   832                           ; 2 bytes @ 0x5D
   833   0000BD                     	ds	1
   834   0000BE                     ??_PWM_Duty:
   835   0000BE                     _pid$1415:
   836                           	callstack 0
   837                           
   838                           ; 4 bytes @ 0x5E
   839   0000BE                     	ds	1
   840   0000BF                     _PWM_Init$1356:
   841                           	callstack 0
   842                           
   843                           ; 4 bytes @ 0x5F
   844   0000BF                     	ds	1
   845   0000C0                     PWM_Duty@nuevoCiclo:
   846                           	callstack 0
   847                           
   848                           ; 2 bytes @ 0x60
   849   0000C0                     	ds	1
   850   0000C1                     sprintf@ap:
   851                           	callstack 0
   852                           
   853                           ; 2 bytes @ 0x61
   854   0000C1                     	ds	1
   855   0000C2                     _pid$1416:
   856                           	callstack 0
   857                           
   858                           ; 4 bytes @ 0x62
   859   0000C2                     	ds	1
   860   0000C3                     PWM_Init@Tpwm:
   861                           	callstack 0
   862   0000C3                     sprintf@f:
   863                           	callstack 0
   864                           
   865                           ; 11 bytes @ 0x63
   866   0000C3                     	ds	3
   867   0000C6                     _pid$1417:
   868                           	callstack 0
   869                           
   870                           ; 4 bytes @ 0x66
   871   0000C6                     	ds	1
   872   0000C7                     PWM_Init@Tosc:
   873                           	callstack 0
   874                           
   875                           ; 4 bytes @ 0x67
   876   0000C7                     	ds	3
   877   0000CA                     _pid$1354:
   878                           	callstack 0
   879                           
   880                           ; 4 bytes @ 0x6A
   881   0000CA                     	ds	1
   882   0000CB                     PWM_Init@press:
   883                           	callstack 0
   884                           
   885                           ; 1 bytes @ 0x6B
   886   0000CB                     	ds	3
   887   0000CE                     _pid$1355:
   888                           	callstack 0
   889                           
   890                           ; 4 bytes @ 0x6E
   891   0000CE                     	ds	4
   892   0000D2                     pid@Tm:
   893                           	callstack 0
   894                           
   895                           ; 4 bytes @ 0x72
   896   0000D2                     	ds	4
   897   0000D6                     
   898                           ; 1 bytes @ 0x76
   899                           
   900                           	psect	cstackCOMRAM
   901   000001                     __pcstackCOMRAM:
   902                           	callstack 0
   903   000001                     ?i2___wmul:
   904                           	callstack 0
   905   000001                     i2___wmul@multiplier:
   906                           	callstack 0
   907                           
   908                           ; 2 bytes @ 0x0
   909   000001                     	ds	2
   910   000003                     i2___wmul@multiplicand:
   911                           	callstack 0
   912                           
   913                           ; 2 bytes @ 0x2
   914   000003                     	ds	2
   915   000005                     i2___wmul@product:
   916                           	callstack 0
   917                           
   918                           ; 2 bytes @ 0x4
   919   000005                     	ds	2
   920   000007                     ?i2___xxtofl:
   921                           	callstack 0
   922   000007                     i2___xxtofl@val:
   923                           	callstack 0
   924                           
   925                           ; 4 bytes @ 0x6
   926   000007                     	ds	4
   927   00000B                     ??i2___xxtofl:
   928                           
   929                           ; 1 bytes @ 0xA
   930   00000B                     	ds	4
   931   00000F                     i2___xxtofl@sign:
   932                           	callstack 0
   933                           
   934                           ; 1 bytes @ 0xE
   935   00000F                     	ds	1
   936   000010                     i2___xxtofl@exp:
   937                           	callstack 0
   938                           
   939                           ; 1 bytes @ 0xF
   940   000010                     	ds	1
   941   000011                     i2___xxtofl@arg:
   942                           	callstack 0
   943                           
   944                           ; 4 bytes @ 0x10
   945   000011                     	ds	4
   946   000015                     ?i2___flmul:
   947                           	callstack 0
   948   000015                     i2___flmul@b:
   949                           	callstack 0
   950                           
   951                           ; 4 bytes @ 0x14
   952   000015                     	ds	4
   953   000019                     i2___flmul@a:
   954                           	callstack 0
   955                           
   956                           ; 4 bytes @ 0x18
   957   000019                     	ds	4
   958   00001D                     ??i2___flmul:
   959                           
   960                           ; 1 bytes @ 0x1C
   961   00001D                     	ds	4
   962   000021                     i2___flmul@sign:
   963                           	callstack 0
   964                           
   965                           ; 1 bytes @ 0x20
   966   000021                     	ds	1
   967   000022                     i2___flmul@grs:
   968                           	callstack 0
   969                           
   970                           ; 4 bytes @ 0x21
   971   000022                     	ds	4
   972   000026                     i2___flmul@aexp:
   973                           	callstack 0
   974                           
   975                           ; 1 bytes @ 0x25
   976   000026                     	ds	1
   977   000027                     i2___flmul@bexp:
   978                           	callstack 0
   979                           
   980                           ; 1 bytes @ 0x26
   981   000027                     	ds	1
   982   000028                     i2___flmul@prod:
   983                           	callstack 0
   984                           
   985                           ; 4 bytes @ 0x27
   986   000028                     	ds	4
   987   00002C                     i2___flmul@temp:
   988                           	callstack 0
   989                           
   990                           ; 2 bytes @ 0x2B
   991   00002C                     	ds	2
   992   00002E                     ?i2___fltol:
   993                           	callstack 0
   994   00002E                     i2___fltol@f1:
   995                           	callstack 0
   996                           
   997                           ; 4 bytes @ 0x2D
   998   00002E                     	ds	4
   999   000032                     ??i2___fltol:
  1000                           
  1001                           ; 1 bytes @ 0x31
  1002   000032                     	ds	4
  1003   000036                     i2___fltol@sign1:
  1004                           	callstack 0
  1005                           
  1006                           ; 1 bytes @ 0x35
  1007   000036                     	ds	1
  1008   000037                     i2___fltol@exp1:
  1009                           	callstack 0
  1010                           
  1011                           ; 1 bytes @ 0x36
  1012   000037                     	ds	1
  1013   000038                     ??_INTERRUPTS:
  1014                           
  1015                           ; 1 bytes @ 0x37
  1016   000038                     	ds	2
  1017                           
  1018 ;;
  1019 ;;Main: autosize = 0, tempsize = 0, incstack = 0, save=0
  1020 ;;
  1021 ;; *************** function _main *****************
  1022 ;; Defined at:
  1023 ;;		line 56 in file "main.c"
  1024 ;; Parameters:    Size  Location     Type
  1025 ;;		None
  1026 ;; Auto vars:     Size  Location     Type
  1027 ;;		None
  1028 ;; Return value:  Size  Location     Type
  1029 ;;                  1    wreg      void 
  1030 ;; Registers used:
  1031 ;;		wreg, fsr1l, fsr1h, fsr2l, fsr2h, status,2, status,0, tblptrl, tblptrh, tblptru, prodl, prodh, cstack
  1032 ;; Tracked objects:
  1033 ;;		On entry : 0/0
  1034 ;;		On exit  : 0/0
  1035 ;;		Unchanged: 0/0
  1036 ;; Data sizes:     COMRAM   BANK0   BANK1   BANK2   BANK3   BANK4   BANK5   BANK6   BANK7
  1037 ;;      Params:         0       0       0       0       0       0       0       0       0
  1038 ;;      Locals:         0       0       0       0       0       0       0       0       0
  1039 ;;      Temps:          0       0       0       0       0       0       0       0       0
  1040 ;;      Totals:         0       0       0       0       0       0       0       0       0
  1041 ;;Total ram usage:        0 bytes
  1042 ;; Hardware stack levels required when called: 10
  1043 ;; This function calls:
  1044 ;;		_LCD_Cmd
  1045 ;;		_LCD_Init
  1046 ;;		_LCD_Out
  1047 ;;		_PWM_Duty
  1048 ;;		_PWM_Init
  1049 ;;		_PWM_Start
  1050 ;;		_pid
  1051 ;;		_sprintf
  1052 ;;		_tmr0_init
  1053 ;;		_tmr0_on
  1054 ;; This function is called by:
  1055 ;;		Startup code after reset
  1056 ;; This function uses a non-reentrant model
  1057 ;;
  1058                           
  1059                           	psect	text0
  1060   002FB4                     __ptext0:
  1061                           	callstack 0
  1062   002FB4                     _main:
  1063                           	callstack 21
  1064   002FB4                     
  1065                           ;main.c: 57:     ADCON1 = 0x0F;
  1066   002FB4  0E0F               	movlw	15
  1067   002FB6  6EC1               	movwf	193,c	;volatile
  1068   002FB8                     
  1069                           ;main.c: 58:     TRISB = 0xff;
  1070   002FB8  6893               	setf	147,c	;volatile
  1071   002FBA                     
  1072                           ;main.c: 61:     INTCONbits.GIE = 1;
  1073   002FBA  8EF2               	bsf	242,7,c	;volatile
  1074   002FBC                     
  1075                           ;main.c: 62:     INTCONbits.PEIE = 1;
  1076   002FBC  8CF2               	bsf	242,6,c	;volatile
  1077   002FBE                     
  1078                           ;main.c: 65:     INTCONbits.INT0IF = 0;
  1079   002FBE  92F2               	bcf	242,1,c	;volatile
  1080   002FC0                     
  1081                           ;main.c: 66:     INTCONbits.INT0IE = 1;
  1082   002FC0  88F2               	bsf	242,4,c	;volatile
  1083   002FC2                     
  1084                           ;main.c: 67:     INTCON2bits.INTEDG0 = 0;
  1085   002FC2  9CF1               	bcf	241,6,c	;volatile
  1086   002FC4                     
  1087                           ;main.c: 70:     LCD_Init();
  1088   002FC4  EC65  F019         	call	_LCD_Init	;wreg free
  1089   002FC8                     
  1090                           ;main.c: 71:     LCD_Cmd(12);
  1091   002FC8  0E0C               	movlw	12
  1092   002FCA  EC00  F01C         	call	_LCD_Cmd
  1093   002FCE                     
  1094                           ;main.c: 72:     PWM_Init(20000, 16);
  1095   002FCE  0E4E               	movlw	78
  1096   002FD0  0100               	movlb	0	; () banked
  1097   002FD2  6FBB               	movwf	(PWM_Init@f_trabajo+1)& (0+255),b
  1098   002FD4  0E20               	movlw	32
  1099   002FD6  6FBA               	movwf	PWM_Init@f_trabajo& (0+255),b
  1100   002FD8  0E10               	movlw	16
  1101   002FDA  6FBC               	movwf	PWM_Init@pre_config& (0+255),b
  1102   002FDC  ECD6  F010         	call	_PWM_Init	;wreg free
  1103   002FE0                     
  1104                           ;main.c: 73:     PWM_Start();
  1105   002FE0  EC17  F01C         	call	_PWM_Start	;wreg free
  1106   002FE4                     
  1107                           ;main.c: 74:     tmr0_init();
  1108   002FE4  ECF4  F01B         	call	_tmr0_init	;wreg free
  1109   002FE8                     
  1110                           ;main.c: 75:     tmr0_on();
  1111   002FE8  EC15  F01C         	call	_tmr0_on	;wreg free
  1112   002FEC                     l3967:
  1113                           
  1114                           ;main.c: 78:                 sprintf(aux, "RPM_PV  -> %04d", PV_RPM);
  1115   002FEC  0E46               	movlw	low _aux
  1116   002FEE  0100               	movlb	0	; () banked
  1117   002FF0  6FBB               	movwf	sprintf@s& (0+255),b
  1118   002FF2  0E00               	movlw	high _aux
  1119   002FF4  6FBC               	movwf	(sprintf@s+1)& (0+255),b
  1120   002FF6  0E2B               	movlw	low STR_1
  1121   002FF8  6FBD               	movwf	sprintf@fmt& (0+255),b
  1122   002FFA  0E08               	movlw	high STR_1
  1123   002FFC  6FBE               	movwf	(sprintf@fmt+1)& (0+255),b
  1124   002FFE  C0F2  F0BF         	movff	_PV_RPM,?_sprintf+4
  1125   003002  C0F3  F0C0         	movff	_PV_RPM+1,?_sprintf+5
  1126   003006  ECC7  F01A         	call	_sprintf	;wreg free
  1127   00300A                     
  1128                           ;main.c: 79:                 LCD_Out(2, 1, aux);
  1129   00300A  0E01               	movlw	1
  1130   00300C  0100               	movlb	0	; () banked
  1131   00300E  6F68               	movwf	LCD_Out@column& (0+255),b
  1132   003010  0E46               	movlw	low _aux
  1133   003012  6F69               	movwf	LCD_Out@text& (0+255),b
  1134   003014  0E00               	movlw	high _aux
  1135   003016  6F6A               	movwf	(LCD_Out@text+1)& (0+255),b
  1136   003018  0E02               	movlw	2
  1137   00301A  EC59  F01A         	call	_LCD_Out
  1138   00301E                     
  1139                           ;main.c: 80:                 sprintf(aux, "RPM_SV  -> %04d", setpoint_rpm);
  1140   00301E  0E46               	movlw	low _aux
  1141   003020  0100               	movlb	0	; () banked
  1142   003022  6FBB               	movwf	sprintf@s& (0+255),b
  1143   003024  0E00               	movlw	high _aux
  1144   003026  6FBC               	movwf	(sprintf@s+1)& (0+255),b
  1145   003028  0E3B               	movlw	low STR_2
  1146   00302A  6FBD               	movwf	sprintf@fmt& (0+255),b
  1147   00302C  0E08               	movlw	high STR_2
  1148   00302E  6FBE               	movwf	(sprintf@fmt+1)& (0+255),b
  1149   003030  0E01               	movlw	1
  1150   003032  6FC0               	movwf	(?_sprintf+5)& (0+255),b
  1151   003034  0E90               	movlw	144
  1152   003036  6FBF               	movwf	(?_sprintf+4)& (0+255),b
  1153   003038  ECC7  F01A         	call	_sprintf	;wreg free
  1154   00303C                     
  1155                           ;main.c: 81:                 LCD_Out(3, 1, aux);
  1156   00303C  0E01               	movlw	1
  1157   00303E  0100               	movlb	0	; () banked
  1158   003040  6F68               	movwf	LCD_Out@column& (0+255),b
  1159   003042  0E46               	movlw	low _aux
  1160   003044  6F69               	movwf	LCD_Out@text& (0+255),b
  1161   003046  0E00               	movlw	high _aux
  1162   003048  6F6A               	movwf	(LCD_Out@text+1)& (0+255),b
  1163   00304A  0E03               	movlw	3
  1164   00304C  EC59  F01A         	call	_LCD_Out
  1165   003050                     
  1166                           ;main.c: 82:                 duty = pid(PV_RPM);
  1167   003050  C0F2  F0B8         	movff	_PV_RPM,pid@velocidad
  1168   003054  C0F3  F0B9         	movff	_PV_RPM+1,pid@velocidad+1
  1169   003058  EC80  F00C         	call	_pid	;wreg free
  1170   00305C  C0B8  F0EA         	movff	?_pid,_duty
  1171   003060  C0B9  F0EB         	movff	?_pid+1,_duty+1
  1172   003064  C0BA  F0EC         	movff	?_pid+2,_duty+2
  1173   003068  C0BB  F0ED         	movff	?_pid+3,_duty+3
  1174   00306C                     
  1175                           ;main.c: 83:                 PWM_Duty(duty);
  1176   00306C  C0EA  F0BA         	movff	_duty,PWM_Duty@ciclo_t
  1177   003070  C0EB  F0BB         	movff	_duty+1,PWM_Duty@ciclo_t+1
  1178   003074  C0EC  F0BC         	movff	_duty+2,PWM_Duty@ciclo_t+2
  1179   003078  C0ED  F0BD         	movff	_duty+3,PWM_Duty@ciclo_t+3
  1180   00307C  ECBD  F019         	call	_PWM_Duty	;wreg free
  1181   003080                     
  1182                           ;main.c: 84:                 LCD_Out(1, 1, "     Test PID       ");
  1183   003080  0E01               	movlw	1
  1184   003082  0100               	movlb	0	; () banked
  1185   003084  6F68               	movwf	LCD_Out@column& (0+255),b
  1186   003086  0E16               	movlw	low STR_3
  1187   003088  6F69               	movwf	LCD_Out@text& (0+255),b
  1188   00308A  0E08               	movlw	high STR_3
  1189   00308C  6F6A               	movwf	(LCD_Out@text+1)& (0+255),b
  1190   00308E  0E01               	movlw	1
  1191   003090  EC59  F01A         	call	_LCD_Out
  1192   003094  EFF6  F017         	goto	l3967
  1193   003098  EF07  F000         	goto	start
  1194   00309C                     __end_of_main:
  1195                           	callstack 0
  1196                           
  1197 ;; *************** function _tmr0_on *****************
  1198 ;; Defined at:
  1199 ;;		line 132 in file "main.c"
  1200 ;; Parameters:    Size  Location     Type
  1201 ;;		None
  1202 ;; Auto vars:     Size  Location     Type
  1203 ;;		None
  1204 ;; Return value:  Size  Location     Type
  1205 ;;                  1    wreg      void 
  1206 ;; Registers used:
  1207 ;;		None
  1208 ;; Tracked objects:
  1209 ;;		On entry : 0/0
  1210 ;;		On exit  : 0/0
  1211 ;;		Unchanged: 0/0
  1212 ;; Data sizes:     COMRAM   BANK0   BANK1   BANK2   BANK3   BANK4   BANK5   BANK6   BANK7
  1213 ;;      Params:         0       0       0       0       0       0       0       0       0
  1214 ;;      Locals:         0       0       0       0       0       0       0       0       0
  1215 ;;      Temps:          0       0       0       0       0       0       0       0       0
  1216 ;;      Totals:         0       0       0       0       0       0       0       0       0
  1217 ;;Total ram usage:        0 bytes
  1218 ;; Hardware stack levels used: 1
  1219 ;; Hardware stack levels required when called: 2
  1220 ;; This function calls:
  1221 ;;		Nothing
  1222 ;; This function is called by:
  1223 ;;		_main
  1224 ;; This function uses a non-reentrant model
  1225 ;;
  1226                           
  1227                           	psect	text1
  1228   00382A                     __ptext1:
  1229                           	callstack 0
  1230   00382A                     _tmr0_on:
  1231                           	callstack 28
  1232   00382A                     
  1233                           ;main.c: 133:     T0CONbits.TMR0ON = 1;
  1234   00382A  8ED5               	bsf	213,7,c	;volatile
  1235   00382C  0012               	return		;funcret
  1236   00382E                     __end_of_tmr0_on:
  1237                           	callstack 0
  1238                           
  1239 ;; *************** function _tmr0_init *****************
  1240 ;; Defined at:
  1241 ;;		line 120 in file "main.c"
  1242 ;; Parameters:    Size  Location     Type
  1243 ;;		None
  1244 ;; Auto vars:     Size  Location     Type
  1245 ;;		None
  1246 ;; Return value:  Size  Location     Type
  1247 ;;                  1    wreg      void 
  1248 ;; Registers used:
  1249 ;;		wreg, status,2
  1250 ;; Tracked objects:
  1251 ;;		On entry : 0/0
  1252 ;;		On exit  : 0/0
  1253 ;;		Unchanged: 0/0
  1254 ;; Data sizes:     COMRAM   BANK0   BANK1   BANK2   BANK3   BANK4   BANK5   BANK6   BANK7
  1255 ;;      Params:         0       0       0       0       0       0       0       0       0
  1256 ;;      Locals:         0       0       0       0       0       0       0       0       0
  1257 ;;      Temps:          0       0       0       0       0       0       0       0       0
  1258 ;;      Totals:         0       0       0       0       0       0       0       0       0
  1259 ;;Total ram usage:        0 bytes
  1260 ;; Hardware stack levels used: 1
  1261 ;; Hardware stack levels required when called: 2
  1262 ;; This function calls:
  1263 ;;		Nothing
  1264 ;; This function is called by:
  1265 ;;		_main
  1266 ;; This function uses a non-reentrant model
  1267 ;;
  1268                           
  1269                           	psect	text2
  1270   0037E8                     __ptext2:
  1271                           	callstack 0
  1272   0037E8                     _tmr0_init:
  1273                           	callstack 28
  1274   0037E8                     
  1275                           ;main.c: 121:     T0CONbits.T0PS = 0;
  1276   0037E8  0EF8               	movlw	-8
  1277   0037EA  16D5               	andwf	213,f,c	;volatile
  1278   0037EC                     
  1279                           ;main.c: 122:     T0CONbits.PSA = 0;
  1280   0037EC  96D5               	bcf	213,3,c	;volatile
  1281   0037EE                     
  1282                           ;main.c: 123:     T0CONbits.T0SE = 0;
  1283   0037EE  98D5               	bcf	213,4,c	;volatile
  1284   0037F0                     
  1285                           ;main.c: 124:     T0CONbits.T0CS = 0;
  1286   0037F0  9AD5               	bcf	213,5,c	;volatile
  1287   0037F2                     
  1288                           ;main.c: 125:     T0CONbits.T08BIT = 0;
  1289   0037F2  9CD5               	bcf	213,6,c	;volatile
  1290                           
  1291                           ;main.c: 127:     TMR0H = 0x3C;
  1292   0037F4  0E3C               	movlw	60
  1293   0037F6  6ED7               	movwf	215,c	;volatile
  1294                           
  1295                           ;main.c: 128:     TMR0L = 0xB0;
  1296   0037F8  0EB0               	movlw	176
  1297   0037FA  6ED6               	movwf	214,c	;volatile
  1298   0037FC                     
  1299                           ;main.c: 129:     TMR0IE = 1;
  1300   0037FC  8AF2               	bsf	4082,5,c	;volatile
  1301   0037FE  0012               	return		;funcret
  1302   003800                     __end_of_tmr0_init:
  1303                           	callstack 0
  1304                           
  1305 ;; *************** function _sprintf *****************
  1306 ;; Defined at:
  1307 ;;		line 9 in file "C:\Program Files\Microchip\xc8\v2.40\pic\sources\c99\common\nf_sprintf.c"
  1308 ;; Parameters:    Size  Location     Type
  1309 ;;  s               2   91[BANK0 ] PTR unsigned char 
  1310 ;;		 -> aux(20), 
  1311 ;;  fmt             2   93[BANK0 ] PTR const unsigned char 
  1312 ;;		 -> STR_2(16), STR_1(16), 
  1313 ;; Auto vars:     Size  Location     Type
  1314 ;;  f              11   99[BANK0 ] struct _IO_FILE
  1315 ;;  ap              2   97[BANK0 ] PTR void [1]
  1316 ;;		 -> ?_sprintf(2), 
  1317 ;;  ret             2    0        int 
  1318 ;; Return value:  Size  Location     Type
  1319 ;;                  2   91[BANK0 ] int 
  1320 ;; Registers used:
  1321 ;;		wreg, fsr1l, fsr1h, fsr2l, fsr2h, status,2, status,0, tblptrl, tblptrh, tblptru, prodl, prodh, cstack
  1322 ;; Tracked objects:
  1323 ;;		On entry : 0/0
  1324 ;;		On exit  : 0/0
  1325 ;;		Unchanged: 0/0
  1326 ;; Data sizes:     COMRAM   BANK0   BANK1   BANK2   BANK3   BANK4   BANK5   BANK6   BANK7
  1327 ;;      Params:         0       6       0       0       0       0       0       0       0
  1328 ;;      Locals:         0      13       0       0       0       0       0       0       0
  1329 ;;      Temps:          0       0       0       0       0       0       0       0       0
  1330 ;;      Totals:         0      19       0       0       0       0       0       0       0
  1331 ;;Total ram usage:       19 bytes
  1332 ;; Hardware stack levels used: 1
  1333 ;; Hardware stack levels required when called: 9
  1334 ;; This function calls:
  1335 ;;		_vfprintf
  1336 ;; This function is called by:
  1337 ;;		_main
  1338 ;; This function uses a non-reentrant model
  1339 ;;
  1340                           
  1341                           	psect	text3
  1342   00358E                     __ptext3:
  1343                           	callstack 0
  1344   00358E                     _sprintf:
  1345                           	callstack 21
  1346   00358E  0EBF               	movlw	low (?_sprintf+4)
  1347   003590  0100               	movlb	0	; () banked
  1348   003592  6FC1               	movwf	sprintf@ap& (0+255),b
  1349   003594  0E00               	movlw	high (?_sprintf+4)
  1350   003596  6FC2               	movwf	(sprintf@ap+1)& (0+255),b
  1351   003598  C0BB  F0C3         	movff	sprintf@s,sprintf@f
  1352   00359C  C0BC  F0C4         	movff	sprintf@s+1,sprintf@f+1
  1353   0035A0                     
  1354                           ; BSR set to: 0
  1355   0035A0  0E00               	movlw	0
  1356   0035A2  6FC7               	movwf	(sprintf@f+4)& (0+255),b
  1357   0035A4  0E00               	movlw	0
  1358   0035A6  6FC6               	movwf	(sprintf@f+3)& (0+255),b
  1359   0035A8                     
  1360                           ; BSR set to: 0
  1361   0035A8  0E00               	movlw	0
  1362   0035AA  6FCD               	movwf	(sprintf@f+10)& (0+255),b
  1363   0035AC  0E00               	movlw	0
  1364   0035AE  6FCC               	movwf	(sprintf@f+9)& (0+255),b
  1365   0035B0                     
  1366                           ; BSR set to: 0
  1367   0035B0  0EC3               	movlw	low sprintf@f
  1368   0035B2  6FB3               	movwf	vfprintf@fp& (0+255),b
  1369   0035B4  0E00               	movlw	high sprintf@f
  1370   0035B6  6FB4               	movwf	(vfprintf@fp+1)& (0+255),b
  1371   0035B8  C0BD  F0B5         	movff	sprintf@fmt,vfprintf@fmt
  1372   0035BC  C0BE  F0B6         	movff	sprintf@fmt+1,vfprintf@fmt+1
  1373   0035C0  0EC1               	movlw	low sprintf@ap
  1374   0035C2  6FB7               	movwf	vfprintf@ap& (0+255),b
  1375   0035C4  0E00               	movlw	high sprintf@ap
  1376   0035C6  6FB8               	movwf	(vfprintf@ap+1)& (0+255),b
  1377   0035C8  ECF0  F01A         	call	_vfprintf	;wreg free
  1378   0035CC  0100               	movlb	0	; () banked
  1379   0035CE  51C6               	movf	(sprintf@f+3)& (0+255),w,b
  1380   0035D0  25BB               	addwf	sprintf@s& (0+255),w,b
  1381   0035D2  6ED9               	movwf	fsr2l,c
  1382   0035D4  51C7               	movf	(sprintf@f+4)& (0+255),w,b
  1383   0035D6  21BC               	addwfc	(sprintf@s+1)& (0+255),w,b
  1384   0035D8  6EDA               	movwf	fsr2h,c
  1385   0035DA  0E00               	movlw	0
  1386   0035DC  6EDF               	movwf	indf2,c
  1387   0035DE                     
  1388                           ; BSR set to: 0
  1389   0035DE  0012               	return		;funcret
  1390   0035E0                     __end_of_sprintf:
  1391                           	callstack 0
  1392                           
  1393 ;; *************** function _vfprintf *****************
  1394 ;; Defined at:
  1395 ;;		line 1520 in file "C:\Program Files\Microchip\xc8\v2.40\pic\sources\c99\common\doprnt.c"
  1396 ;; Parameters:    Size  Location     Type
  1397 ;;  fp              2   83[BANK0 ] PTR struct _IO_FILE
  1398 ;;		 -> sprintf@f(11), 
  1399 ;;  fmt             2   85[BANK0 ] PTR const unsigned char 
  1400 ;;		 -> STR_2(16), STR_1(16), 
  1401 ;;  ap              2   87[BANK0 ] PTR PTR void 
  1402 ;;		 -> sprintf@ap(2), 
  1403 ;; Auto vars:     Size  Location     Type
  1404 ;;  cfmt            2   89[BANK0 ] PTR unsigned char 
  1405 ;;		 -> STR_2(16), STR_1(16), 
  1406 ;; Return value:  Size  Location     Type
  1407 ;;                  2   83[BANK0 ] int 
  1408 ;; Registers used:
  1409 ;;		wreg, fsr1l, fsr1h, fsr2l, fsr2h, status,2, status,0, tblptrl, tblptrh, tblptru, prodl, prodh, cstack
  1410 ;; Tracked objects:
  1411 ;;		On entry : 0/0
  1412 ;;		On exit  : 0/0
  1413 ;;		Unchanged: 0/0
  1414 ;; Data sizes:     COMRAM   BANK0   BANK1   BANK2   BANK3   BANK4   BANK5   BANK6   BANK7
  1415 ;;      Params:         0       6       0       0       0       0       0       0       0
  1416 ;;      Locals:         0       2       0       0       0       0       0       0       0
  1417 ;;      Temps:          0       0       0       0       0       0       0       0       0
  1418 ;;      Totals:         0       8       0       0       0       0       0       0       0
  1419 ;;Total ram usage:        8 bytes
  1420 ;; Hardware stack levels used: 1
  1421 ;; Hardware stack levels required when called: 8
  1422 ;; This function calls:
  1423 ;;		_vfpfcnvrt
  1424 ;; This function is called by:
  1425 ;;		_sprintf
  1426 ;; This function uses a non-reentrant model
  1427 ;;
  1428                           
  1429                           	psect	text4
  1430   0035E0                     __ptext4:
  1431                           	callstack 0
  1432   0035E0                     _vfprintf:
  1433                           	callstack 21
  1434   0035E0                     
  1435                           ;C:\Program Files\Microchip\xc8\v2.40\pic\sources\c99\common\doprnt.c: 1520: int vfprint
      +                          f(FILE *fp, const char *fmt, va_list ap);C:\Program Files\Microchip\xc8\v2.40\pic\source
      +                          s\c99\common\doprnt.c: 1521: {;C:\Program Files\Microchip\xc8\v2.40\pic\sources\c99\comm
      +                          on\doprnt.c: 1523:     char *cfmt;;C:\Program Files\Microchip\xc8\v2.40\pic\sources\c99\
      +                          common\doprnt.c: 1525:     cfmt = (char *)fmt;
  1436   0035E0  C0B5  F0B9         	movff	vfprintf@fmt,vfprintf@cfmt
  1437   0035E4  C0B6  F0BA         	movff	vfprintf@fmt+1,vfprintf@cfmt+1
  1438                           
  1439                           ;C:\Program Files\Microchip\xc8\v2.40\pic\sources\c99\common\doprnt.c: 1529:     while (
      +                          *cfmt) {
  1440   0035E8  EF05  F01B         	goto	l3543
  1441   0035EC                     l3541:
  1442                           
  1443                           ;C:\Program Files\Microchip\xc8\v2.40\pic\sources\c99\common\doprnt.c: 1533:    vfpfcnvr
      +                          t(fp, &cfmt, ap);
  1444   0035EC  C0B3  F09E         	movff	vfprintf@fp,vfpfcnvrt@fp
  1445   0035F0  C0B4  F09F         	movff	vfprintf@fp+1,vfpfcnvrt@fp+1
  1446   0035F4  0EB9               	movlw	low vfprintf@cfmt
  1447   0035F6  0100               	movlb	0	; () banked
  1448   0035F8  6FA0               	movwf	vfpfcnvrt@fmt& (0+255),b
  1449   0035FA  0E00               	movlw	high vfprintf@cfmt
  1450   0035FC  6FA1               	movwf	(vfpfcnvrt@fmt+1)& (0+255),b
  1451   0035FE  C0B7  F0A2         	movff	vfprintf@ap,vfpfcnvrt@ap
  1452   003602  C0B8  F0A3         	movff	vfprintf@ap+1,vfpfcnvrt@ap+1
  1453   003606  EC86  F00F         	call	_vfpfcnvrt	;wreg free
  1454   00360A                     l3543:
  1455                           
  1456                           ;C:\Program Files\Microchip\xc8\v2.40\pic\sources\c99\common\doprnt.c: 1529:     while (
      +                          *cfmt) {
  1457   00360A  C0B9  FFF6         	movff	vfprintf@cfmt,tblptrl
  1458   00360E  C0BA  FFF7         	movff	vfprintf@cfmt+1,tblptrh
  1459   003612                     	if	0	;tblptru may be non-zero
  1460   003612                     	endif
  1461   003612                     	if	0	;tblptru may be non-zero
  1462   003612                     	endif
  1463   003612  0008               	tblrd		*
  1464   003614  50F5               	movf	tablat,w,c
  1465   003616  0900               	iorlw	0
  1466   003618  A4D8               	btfss	status,2,c
  1467   00361A  EF11  F01B         	goto	u3601
  1468   00361E  EF13  F01B         	goto	u3600
  1469   003622                     u3601:
  1470   003622  EFF6  F01A         	goto	l3541
  1471   003626                     u3600:
  1472   003626                     
  1473                           ;C:\Program Files\Microchip\xc8\v2.40\pic\sources\c99\common\doprnt.c: 1538:  return 0;
  1474   003626  0E00               	movlw	0
  1475   003628  0100               	movlb	0	; () banked
  1476   00362A  6FB4               	movwf	(?_vfprintf+1)& (0+255),b
  1477   00362C  0E00               	movlw	0
  1478   00362E  6FB3               	movwf	?_vfprintf& (0+255),b
  1479   003630                     
  1480                           ; BSR set to: 0
  1481   003630  0012               	return		;funcret
  1482   003632                     __end_of_vfprintf:
  1483                           	callstack 0
  1484                           
  1485 ;; *************** function _vfpfcnvrt *****************
  1486 ;; Defined at:
  1487 ;;		line 1007 in file "C:\Program Files\Microchip\xc8\v2.40\pic\sources\c99\common\doprnt.c"
  1488 ;; Parameters:    Size  Location     Type
  1489 ;;  fp              2   62[BANK0 ] PTR struct _IO_FILE
  1490 ;;		 -> sprintf@f(11), 
  1491 ;;  fmt             2   64[BANK0 ] PTR PTR unsigned char 
  1492 ;;		 -> vfprintf@cfmt(2), 
  1493 ;;  ap              2   66[BANK0 ] PTR PTR void 
  1494 ;;		 -> sprintf@ap(2), 
  1495 ;; Auto vars:     Size  Location     Type
  1496 ;;  convarg         8   71[BANK0 ] struct .
  1497 ;;  cp              2   81[BANK0 ] PTR unsigned char 
  1498 ;;		 -> STR_2(16), STR_1(16), 
  1499 ;;  done            2   79[BANK0 ] int 
  1500 ;;  i               2    0        int 
  1501 ;;  c               1    0        unsigned char 
  1502 ;; Return value:  Size  Location     Type
  1503 ;;                  1    wreg      void 
  1504 ;; Registers used:
  1505 ;;		wreg, fsr1l, fsr1h, fsr2l, fsr2h, status,2, status,0, tblptrl, tblptrh, tblptru, prodl, prodh, cstack
  1506 ;; Tracked objects:
  1507 ;;		On entry : 0/0
  1508 ;;		On exit  : 0/0
  1509 ;;		Unchanged: 0/0
  1510 ;; Data sizes:     COMRAM   BANK0   BANK1   BANK2   BANK3   BANK4   BANK5   BANK6   BANK7
  1511 ;;      Params:         0       6       0       0       0       0       0       0       0
  1512 ;;      Locals:         0      12       0       0       0       0       0       0       0
  1513 ;;      Temps:          0       3       0       0       0       0       0       0       0
  1514 ;;      Totals:         0      21       0       0       0       0       0       0       0
  1515 ;;Total ram usage:       21 bytes
  1516 ;; Hardware stack levels used: 1
  1517 ;; Hardware stack levels required when called: 7
  1518 ;; This function calls:
  1519 ;;		_atoi
  1520 ;;		_dtoa
  1521 ;;		_fputc
  1522 ;;		_isdigit
  1523 ;; This function is called by:
  1524 ;;		_vfprintf
  1525 ;; This function uses a non-reentrant model
  1526 ;;
  1527                           
  1528                           	psect	text5
  1529   001F0C                     __ptext5:
  1530                           	callstack 0
  1531   001F0C                     _vfpfcnvrt:
  1532                           	callstack 21
  1533   001F0C                     
  1534                           ;C:\Program Files\Microchip\xc8\v2.40\pic\sources\c99\common\doprnt.c: 1007: vfpfcnvrt(F
      +                          ILE *fp, char *fmt[], va_list ap);C:\Program Files\Microchip\xc8\v2.40\pic\sources\c99\c
      +                          ommon\doprnt.c: 1008: {;C:\Program Files\Microchip\xc8\v2.40\pic\sources\c99\common\dopr
      +                          nt.c: 1009:     char c, *cp;;C:\Program Files\Microchip\xc8\v2.40\pic\sources\c99\common
      +                          \doprnt.c: 1010:     int done, i;;C:\Program Files\Microchip\xc8\v2.40\pic\sources\c99\c
      +                          ommon\doprnt.c: 1016:  } convarg;;C:\Program Files\Microchip\xc8\v2.40\pic\sources\c99\c
      +                          ommon\doprnt.c: 1019:     if ((*fmt)[0] == '%') {
  1535   001F0C  C0A0  FFD9         	movff	vfpfcnvrt@fmt,fsr2l
  1536   001F10  C0A1  FFDA         	movff	vfpfcnvrt@fmt+1,fsr2h
  1537   001F14  CFDE FFF6          	movff	postinc2,tblptrl
  1538   001F18  CFDD FFF7          	movff	postdec2,tblptrh
  1539   001F1C                     	if	0	;tblptru may be non-zero
  1540   001F1C                     	endif
  1541   001F1C                     	if	0	;tblptru may be non-zero
  1542   001F1C                     	endif
  1543   001F1C  0008               	tblrd		*
  1544   001F1E  50F5               	movf	tablat,w,c
  1545   001F20  0A25               	xorlw	37
  1546   001F22  A4D8               	btfss	status,2,c
  1547   001F24  EF96  F00F         	goto	u2891
  1548   001F28  EF98  F00F         	goto	u2890
  1549   001F2C                     u2891:
  1550   001F2C  EFC0  F010         	goto	l3109
  1551   001F30                     u2890:
  1552   001F30                     
  1553                           ;C:\Program Files\Microchip\xc8\v2.40\pic\sources\c99\common\doprnt.c: 1020:         ++*
      +                          fmt;
  1554   001F30  C0A0  FFD9         	movff	vfpfcnvrt@fmt,fsr2l
  1555   001F34  C0A1  FFDA         	movff	vfpfcnvrt@fmt+1,fsr2h
  1556   001F38  2ADE               	incf	postinc2,f,c
  1557   001F3A  0E00               	movlw	0
  1558   001F3C  22DD               	addwfc	postdec2,f,c
  1559   001F3E                     
  1560                           ;C:\Program Files\Microchip\xc8\v2.40\pic\sources\c99\common\doprnt.c: 1022:         fla
      +                          gs = width = 0;
  1561   001F3E  0E00               	movlw	0
  1562   001F40  0100               	movlb	0	; () banked
  1563   001F42  6FEF               	movwf	(_width+1)& (0+255),b
  1564   001F44  0E00               	movlw	0
  1565   001F46  6FEE               	movwf	_width& (0+255),b
  1566   001F48  C0EE  F0F6         	movff	_width,_flags
  1567   001F4C                     
  1568                           ; BSR set to: 0
  1569                           ;C:\Program Files\Microchip\xc8\v2.40\pic\sources\c99\common\doprnt.c: 1023:         pre
      +                          c = -1;
  1570   001F4C  69F0               	setf	_prec& (0+255),b
  1571   001F4E  69F1               	setf	(_prec+1)& (0+255),b
  1572   001F50                     
  1573                           ; BSR set to: 0
  1574                           ;C:\Program Files\Microchip\xc8\v2.40\pic\sources\c99\common\doprnt.c: 1027:         don
      +                          e = 0;
  1575   001F50  0E00               	movlw	0
  1576   001F52  6FB0               	movwf	(vfpfcnvrt@done+1)& (0+255),b
  1577   001F54  0E00               	movlw	0
  1578   001F56  6FAF               	movwf	vfpfcnvrt@done& (0+255),b
  1579                           
  1580                           ;C:\Program Files\Microchip\xc8\v2.40\pic\sources\c99\common\doprnt.c: 1028:         whi
      +                          le (!done) {
  1581   001F58  EFD8  F00F         	goto	l3075
  1582   001F5C                     l3065:
  1583                           
  1584                           ; BSR set to: 0
  1585                           ;C:\Program Files\Microchip\xc8\v2.40\pic\sources\c99\common\doprnt.c: 1038:            
      +                                   flags |= (1 << 1);
  1586   001F5C  83F6               	bsf	_flags& (0+255),1,b
  1587   001F5E                     
  1588                           ; BSR set to: 0
  1589                           ;C:\Program Files\Microchip\xc8\v2.40\pic\sources\c99\common\doprnt.c: 1039:            
      +                                   ++*fmt;
  1590   001F5E  C0A0  FFD9         	movff	vfpfcnvrt@fmt,fsr2l
  1591   001F62  C0A1  FFDA         	movff	vfpfcnvrt@fmt+1,fsr2h
  1592   001F66  2ADE               	incf	postinc2,f,c
  1593   001F68  0E00               	movlw	0
  1594   001F6A  22DD               	addwfc	postdec2,f,c
  1595                           
  1596                           ;C:\Program Files\Microchip\xc8\v2.40\pic\sources\c99\common\doprnt.c: 1040:            
      +                                   break;
  1597   001F6C  EFD8  F00F         	goto	l3075
  1598   001F70                     l3069:
  1599                           
  1600                           ; BSR set to: 0
  1601                           ;C:\Program Files\Microchip\xc8\v2.40\pic\sources\c99\common\doprnt.c: 1061:            
      +                                   done = 1;
  1602   001F70  0E00               	movlw	0
  1603   001F72  6FB0               	movwf	(vfpfcnvrt@done+1)& (0+255),b
  1604   001F74  0E01               	movlw	1
  1605   001F76  6FAF               	movwf	vfpfcnvrt@done& (0+255),b
  1606                           
  1607                           ;C:\Program Files\Microchip\xc8\v2.40\pic\sources\c99\common\doprnt.c: 1062:            
      +                                   break;
  1608   001F78  EFD8  F00F         	goto	l3075
  1609   001F7C                     l3073:
  1610                           
  1611                           ; BSR set to: 0
  1612   001F7C  C0A0  FFD9         	movff	vfpfcnvrt@fmt,fsr2l
  1613   001F80  C0A1  FFDA         	movff	vfpfcnvrt@fmt+1,fsr2h
  1614   001F84  CFDE FFF6          	movff	postinc2,tblptrl
  1615   001F88  CFDD FFF7          	movff	postdec2,tblptrh
  1616   001F8C                     	if	0	;tblptru may be non-zero
  1617   001F8C                     	endif
  1618   001F8C                     	if	0	;tblptru may be non-zero
  1619   001F8C                     	endif
  1620   001F8C  0008               	tblrd		*
  1621   001F8E  50F5               	movf	tablat,w,c
  1622   001F90  6FA4               	movwf	??_vfpfcnvrt& (0+255),b
  1623   001F92  6BA5               	clrf	(??_vfpfcnvrt+1)& (0+255),b
  1624                           
  1625                           ; Switch on 2 bytes has been partitioned into a top level switch of size 1, and 1 sub-sw
      +                          itches
  1626                           ; Switch size 1, requested type "simple"
  1627                           ; Number of cases is 1, Range of values is 0 to 0
  1628                           ; switch strategies available:
  1629                           ; Name         Instructions Cycles
  1630                           ; simple_byte            4     3 (average)
  1631                           ;	Chosen strategy is simple_byte
  1632   001F94  51A5               	movf	(??_vfpfcnvrt+1)& (0+255),w,b
  1633   001F96  0A00               	xorlw	0	; case 0
  1634   001F98  B4D8               	btfsc	status,2,c
  1635   001F9A  EFD1  F00F         	goto	l4099
  1636   001F9E  EFB8  F00F         	goto	l3069
  1637   001FA2                     l4099:
  1638                           
  1639                           ; BSR set to: 0
  1640                           ; Switch size 1, requested type "simple"
  1641                           ; Number of cases is 1, Range of values is 48 to 48
  1642                           ; switch strategies available:
  1643                           ; Name         Instructions Cycles
  1644                           ; simple_byte            4     3 (average)
  1645                           ;	Chosen strategy is simple_byte
  1646   001FA2  51A4               	movf	??_vfpfcnvrt& (0+255),w,b
  1647   001FA4  0A30               	xorlw	48	; case 48
  1648   001FA6  B4D8               	btfsc	status,2,c
  1649   001FA8  EFAE  F00F         	goto	l3065
  1650   001FAC  EFB8  F00F         	goto	l3069
  1651   001FB0                     l3075:
  1652                           
  1653                           ; BSR set to: 0
  1654                           ;C:\Program Files\Microchip\xc8\v2.40\pic\sources\c99\common\doprnt.c: 1028:         whi
      +                          le (!done) {
  1655   001FB0  51AF               	movf	vfpfcnvrt@done& (0+255),w,b
  1656   001FB2  11B0               	iorwf	(vfpfcnvrt@done+1)& (0+255),w,b
  1657   001FB4  B4D8               	btfsc	status,2,c
  1658   001FB6  EFDF  F00F         	goto	u2901
  1659   001FBA  EFE1  F00F         	goto	u2900
  1660   001FBE                     u2901:
  1661   001FBE  EFBE  F00F         	goto	l3073
  1662   001FC2                     u2900:
  1663   001FC2                     
  1664                           ; BSR set to: 0
  1665                           ;C:\Program Files\Microchip\xc8\v2.40\pic\sources\c99\common\doprnt.c: 1074:         if 
      +                          ((*fmt)[0] == '*') {
  1666   001FC2  C0A0  FFD9         	movff	vfpfcnvrt@fmt,fsr2l
  1667   001FC6  C0A1  FFDA         	movff	vfpfcnvrt@fmt+1,fsr2h
  1668   001FCA  CFDE FFF6          	movff	postinc2,tblptrl
  1669   001FCE  CFDD FFF7          	movff	postdec2,tblptrh
  1670   001FD2                     	if	0	;tblptru may be non-zero
  1671   001FD2                     	endif
  1672   001FD2                     	if	0	;tblptru may be non-zero
  1673   001FD2                     	endif
  1674   001FD2  0008               	tblrd		*
  1675   001FD4  50F5               	movf	tablat,w,c
  1676   001FD6  0A2A               	xorlw	42
  1677   001FD8  A4D8               	btfss	status,2,c
  1678   001FDA  EFF1  F00F         	goto	u2911
  1679   001FDE  EFF3  F00F         	goto	u2910
  1680   001FE2                     u2911:
  1681   001FE2  EF1C  F010         	goto	l3085
  1682   001FE6                     u2910:
  1683   001FE6                     
  1684                           ; BSR set to: 0
  1685                           ;C:\Program Files\Microchip\xc8\v2.40\pic\sources\c99\common\doprnt.c: 1075:            
      +                           ++*fmt;
  1686   001FE6  C0A0  FFD9         	movff	vfpfcnvrt@fmt,fsr2l
  1687   001FEA  C0A1  FFDA         	movff	vfpfcnvrt@fmt+1,fsr2h
  1688   001FEE  2ADE               	incf	postinc2,f,c
  1689   001FF0  0E00               	movlw	0
  1690   001FF2  22DD               	addwfc	postdec2,f,c
  1691                           
  1692                           ;C:\Program Files\Microchip\xc8\v2.40\pic\sources\c99\common\doprnt.c: 1076:            
      +                           width = (*(int *)__va_arg(*(int **)ap, (int)0));
  1693   001FF4  C0A2  FFD9         	movff	vfpfcnvrt@ap,fsr2l
  1694   001FF8  C0A3  FFDA         	movff	vfpfcnvrt@ap+1,fsr2h
  1695   001FFC  CFDF F0A4          	movff	indf2,??_vfpfcnvrt
  1696   002000  0E02               	movlw	2
  1697   002002  26DE               	addwf	postinc2,f,c
  1698   002004  CFDF F0A5          	movff	indf2,??_vfpfcnvrt+1
  1699   002008  0E00               	movlw	0
  1700   00200A  22DD               	addwfc	postdec2,f,c
  1701   00200C  C0A4  FFD9         	movff	??_vfpfcnvrt,fsr2l
  1702   002010  C0A5  FFDA         	movff	??_vfpfcnvrt+1,fsr2h
  1703   002014  CFDE F0EE          	movff	postinc2,_width
  1704   002018  CFDD F0EF          	movff	postdec2,_width+1
  1705   00201C                     
  1706                           ; BSR set to: 0
  1707                           ;C:\Program Files\Microchip\xc8\v2.40\pic\sources\c99\common\doprnt.c: 1077:            
      +                           if (width < 0) {
  1708   00201C  BFEF               	btfsc	(_width+1)& (0+255),7,b
  1709   00201E  EF15  F010         	goto	u2920
  1710   002022  EF13  F010         	goto	u2921
  1711   002026                     u2921:
  1712   002026  EF50  F010         	goto	l3093
  1713   00202A                     u2920:
  1714   00202A                     
  1715                           ; BSR set to: 0
  1716                           ;C:\Program Files\Microchip\xc8\v2.40\pic\sources\c99\common\doprnt.c: 1078:            
      +                               flags |= (1 << 0);
  1717   00202A  81F6               	bsf	_flags& (0+255),0,b
  1718                           
  1719                           ;C:\Program Files\Microchip\xc8\v2.40\pic\sources\c99\common\doprnt.c: 1079:            
      +                               width = -width;
  1720   00202C  6DEE               	negf	_width& (0+255),b
  1721   00202E  1FEF               	comf	(_width+1)& (0+255),f,b
  1722   002030  B0D8               	btfsc	status,0,c
  1723   002032  2BEF               	incf	(_width+1)& (0+255),f,b
  1724   002034  EF50  F010         	goto	l3093
  1725   002038                     l3085:
  1726                           
  1727                           ; BSR set to: 0
  1728                           ;C:\Program Files\Microchip\xc8\v2.40\pic\sources\c99\common\doprnt.c: 1082:            
      +                           width = atoi(*fmt);
  1729   002038  C0A0  FFD9         	movff	vfpfcnvrt@fmt,fsr2l
  1730   00203C  C0A1  FFDA         	movff	vfpfcnvrt@fmt+1,fsr2h
  1731   002040  CFDE F066          	movff	postinc2,atoi@s
  1732   002044  CFDD F067          	movff	postdec2,atoi@s+1
  1733   002048  EC10  F015         	call	_atoi	;wreg free
  1734   00204C  C066  F0EE         	movff	?_atoi,_width
  1735   002050  C067  F0EF         	movff	?_atoi+1,_width+1
  1736                           
  1737                           ;C:\Program Files\Microchip\xc8\v2.40\pic\sources\c99\common\doprnt.c: 1083:            
      +                           while ((0 && isdigit((*fmt)[0]), ((unsigned)((*fmt)[0])-'0') < 10)) {
  1738   002054  EF33  F010         	goto	l3091
  1739   002058                     l3087:
  1740                           
  1741                           ; BSR set to: 0
  1742                           ;C:\Program Files\Microchip\xc8\v2.40\pic\sources\c99\common\doprnt.c: 1084:            
      +                               ++*fmt;
  1743   002058  C0A0  FFD9         	movff	vfpfcnvrt@fmt,fsr2l
  1744   00205C  C0A1  FFDA         	movff	vfpfcnvrt@fmt+1,fsr2h
  1745   002060  2ADE               	incf	postinc2,f,c
  1746   002062  0E00               	movlw	0
  1747   002064  22DD               	addwfc	postdec2,f,c
  1748   002066                     l3091:
  1749   002066  C0A0  FFD9         	movff	vfpfcnvrt@fmt,fsr2l
  1750   00206A  C0A1  FFDA         	movff	vfpfcnvrt@fmt+1,fsr2h
  1751   00206E  CFDE FFF6          	movff	postinc2,tblptrl
  1752   002072  CFDD FFF7          	movff	postdec2,tblptrh
  1753   002076                     	if	0	;tblptru may be non-zero
  1754   002076                     	endif
  1755   002076                     	if	0	;tblptru may be non-zero
  1756   002076                     	endif
  1757   002076  0008               	tblrd		*
  1758   002078  CFF5 F0A4          	movff	tablat,??_vfpfcnvrt
  1759   00207C  0ED0               	movlw	208
  1760   00207E  0100               	movlb	0	; () banked
  1761   002080  25A4               	addwf	??_vfpfcnvrt& (0+255),w,b
  1762   002082  6FA5               	movwf	(??_vfpfcnvrt+1)& (0+255),b
  1763   002084  6BA6               	clrf	(??_vfpfcnvrt+2)& (0+255),b
  1764   002086  0EFF               	movlw	255
  1765   002088  23A6               	addwfc	(??_vfpfcnvrt+2)& (0+255),f,b
  1766   00208A  51A6               	movf	(??_vfpfcnvrt+2)& (0+255),w,b
  1767   00208C  E109               	bnz	u2930
  1768   00208E  0E0A               	movlw	10
  1769   002090  5DA5               	subwf	(??_vfpfcnvrt+1)& (0+255),w,b
  1770   002092  A0D8               	btfss	status,0,c
  1771   002094  EF4E  F010         	goto	u2931
  1772   002098  EF50  F010         	goto	u2930
  1773   00209C                     u2931:
  1774   00209C  EF2C  F010         	goto	l3087
  1775   0020A0                     u2930:
  1776   0020A0                     l3093:
  1777                           
  1778                           ; BSR set to: 0
  1779                           ;C:\Program Files\Microchip\xc8\v2.40\pic\sources\c99\common\doprnt.c: 1117:   cp = *fmt
      +                          ;
  1780   0020A0  C0A0  FFD9         	movff	vfpfcnvrt@fmt,fsr2l
  1781   0020A4  C0A1  FFDA         	movff	vfpfcnvrt@fmt+1,fsr2h
  1782   0020A8  CFDE F0B1          	movff	postinc2,vfpfcnvrt@cp
  1783   0020AC  CFDD F0B2          	movff	postdec2,vfpfcnvrt@cp+1
  1784   0020B0                     
  1785                           ; BSR set to: 0
  1786                           ;C:\Program Files\Microchip\xc8\v2.40\pic\sources\c99\common\doprnt.c: 1187:   if (*cp =
      +                          = 'd' || *cp == 'i') {
  1787   0020B0  C0B1  FFF6         	movff	vfpfcnvrt@cp,tblptrl
  1788   0020B4  C0B2  FFF7         	movff	vfpfcnvrt@cp+1,tblptrh
  1789   0020B8                     	if	0	;tblptru may be non-zero
  1790   0020B8                     	endif
  1791   0020B8                     	if	0	;tblptru may be non-zero
  1792   0020B8                     	endif
  1793   0020B8  0008               	tblrd		*
  1794   0020BA  50F5               	movf	tablat,w,c
  1795   0020BC  0A64               	xorlw	100
  1796   0020BE  B4D8               	btfsc	status,2,c
  1797   0020C0  EF64  F010         	goto	u2941
  1798   0020C4  EF66  F010         	goto	u2940
  1799   0020C8                     u2941:
  1800   0020C8  EF74  F010         	goto	l3099
  1801   0020CC                     u2940:
  1802   0020CC                     
  1803                           ; BSR set to: 0
  1804   0020CC  C0B1  FFF6         	movff	vfpfcnvrt@cp,tblptrl
  1805   0020D0  C0B2  FFF7         	movff	vfpfcnvrt@cp+1,tblptrh
  1806   0020D4                     	if	0	;tblptru may be non-zero
  1807   0020D4                     	endif
  1808   0020D4                     	if	0	;tblptru may be non-zero
  1809   0020D4                     	endif
  1810   0020D4  0008               	tblrd		*
  1811   0020D6  50F5               	movf	tablat,w,c
  1812   0020D8  0A69               	xorlw	105
  1813   0020DA  A4D8               	btfss	status,2,c
  1814   0020DC  EF72  F010         	goto	u2951
  1815   0020E0  EF74  F010         	goto	u2950
  1816   0020E4                     u2951:
  1817   0020E4  EFB7  F010         	goto	l3105
  1818   0020E8                     u2950:
  1819   0020E8                     l3099:
  1820                           
  1821                           ; BSR set to: 0
  1822                           ;C:\Program Files\Microchip\xc8\v2.40\pic\sources\c99\common\doprnt.c: 1230:    convarg.
      +                          ll = (long long)(int)(*(int *)__va_arg(*(int **)ap, (int)0));
  1823   0020E8  C0A2  FFD9         	movff	vfpfcnvrt@ap,fsr2l
  1824   0020EC  C0A3  FFDA         	movff	vfpfcnvrt@ap+1,fsr2h
  1825   0020F0  CFDF F0A4          	movff	indf2,??_vfpfcnvrt
  1826   0020F4  0E02               	movlw	2
  1827   0020F6  26DE               	addwf	postinc2,f,c
  1828   0020F8  CFDF F0A5          	movff	indf2,??_vfpfcnvrt+1
  1829   0020FC  0E00               	movlw	0
  1830   0020FE  22DD               	addwfc	postdec2,f,c
  1831   002100  C0A4  FFD9         	movff	??_vfpfcnvrt,fsr2l
  1832   002104  C0A5  FFDA         	movff	??_vfpfcnvrt+1,fsr2h
  1833   002108  CFDE F0A7          	movff	postinc2,vfpfcnvrt@convarg
  1834   00210C  CFDD F0A8          	movff	postdec2,vfpfcnvrt@convarg+1
  1835   002110  0E00               	movlw	0
  1836   002112  BFA8               	btfsc	(vfpfcnvrt@convarg+1)& (0+255),7,b
  1837   002114  0EFF               	movlw	-1
  1838   002116  6FA9               	movwf	(vfpfcnvrt@convarg+2)& (0+255),b
  1839   002118  6FAA               	movwf	(vfpfcnvrt@convarg+3)& (0+255),b
  1840   00211A  6FAB               	movwf	(vfpfcnvrt@convarg+4)& (0+255),b
  1841   00211C  6FAC               	movwf	(vfpfcnvrt@convarg+5)& (0+255),b
  1842   00211E  6FAD               	movwf	(vfpfcnvrt@convarg+6)& (0+255),b
  1843   002120  6FAE               	movwf	(vfpfcnvrt@convarg+7)& (0+255),b
  1844                           
  1845                           ;C:\Program Files\Microchip\xc8\v2.40\pic\sources\c99\common\doprnt.c: 1232:    *fmt = c
      +                          p+1;
  1846   002122  0E01               	movlw	1
  1847   002124  25B1               	addwf	vfpfcnvrt@cp& (0+255),w,b
  1848   002126  6FA4               	movwf	??_vfpfcnvrt& (0+255),b
  1849   002128  0E00               	movlw	0
  1850   00212A  21B2               	addwfc	(vfpfcnvrt@cp+1)& (0+255),w,b
  1851   00212C  6FA5               	movwf	(??_vfpfcnvrt+1)& (0+255),b
  1852   00212E  C0A0  FFD9         	movff	vfpfcnvrt@fmt,fsr2l
  1853   002132  C0A1  FFDA         	movff	vfpfcnvrt@fmt+1,fsr2h
  1854   002136  C0A4  FFDE         	movff	??_vfpfcnvrt,postinc2
  1855   00213A  C0A5  FFDD         	movff	??_vfpfcnvrt+1,postdec2
  1856   00213E                     
  1857                           ; BSR set to: 0
  1858                           ;C:\Program Files\Microchip\xc8\v2.40\pic\sources\c99\common\doprnt.c: 1233:    return (
      +                          void) dtoa(fp, convarg.ll);;	Return value of _vfpfcnvrt is never used
  1859   00213E  C09E  F07B         	movff	vfpfcnvrt@fp,dtoa@fp
  1860   002142  C09F  F07C         	movff	vfpfcnvrt@fp+1,dtoa@fp+1
  1861   002146  C0A7  F07D         	movff	vfpfcnvrt@convarg,dtoa@d
  1862   00214A  C0A8  F07E         	movff	vfpfcnvrt@convarg+1,dtoa@d+1
  1863   00214E  C0A9  F07F         	movff	vfpfcnvrt@convarg+2,dtoa@d+2
  1864   002152  C0AA  F080         	movff	vfpfcnvrt@convarg+3,dtoa@d+3
  1865   002156  C0AB  F081         	movff	vfpfcnvrt@convarg+4,dtoa@d+4
  1866   00215A  C0AC  F082         	movff	vfpfcnvrt@convarg+5,dtoa@d+5
  1867   00215E  C0AD  F083         	movff	vfpfcnvrt@convarg+6,dtoa@d+6
  1868   002162  C0AE  F084         	movff	vfpfcnvrt@convarg+7,dtoa@d+7
  1869   002166  EC29  F00E         	call	_dtoa	;wreg free
  1870   00216A  EFD5  F010         	goto	l938
  1871   00216E                     l3105:
  1872                           
  1873                           ;C:\Program Files\Microchip\xc8\v2.40\pic\sources\c99\common\doprnt.c: 1509:         ++*
      +                          fmt;
  1874   00216E  C0A0  FFD9         	movff	vfpfcnvrt@fmt,fsr2l
  1875   002172  C0A1  FFDA         	movff	vfpfcnvrt@fmt+1,fsr2h
  1876   002176  2ADE               	incf	postinc2,f,c
  1877   002178  0E00               	movlw	0
  1878   00217A  22DD               	addwfc	postdec2,f,c
  1879   00217C  EFD5  F010         	goto	l938
  1880   002180                     l3109:
  1881                           
  1882                           ;C:\Program Files\Microchip\xc8\v2.40\pic\sources\c99\common\doprnt.c: 1514:     fputc((
      +                          int)(*fmt)[0], fp);
  1883   002180  C0A0  FFD9         	movff	vfpfcnvrt@fmt,fsr2l
  1884   002184  C0A1  FFDA         	movff	vfpfcnvrt@fmt+1,fsr2h
  1885   002188  CFDE FFF6          	movff	postinc2,tblptrl
  1886   00218C  CFDD FFF7          	movff	postdec2,tblptrh
  1887   002190                     	if	0	;tblptru may be non-zero
  1888   002190                     	endif
  1889   002190                     	if	0	;tblptru may be non-zero
  1890   002190                     	endif
  1891   002190  0008               	tblrd		*
  1892   002192  50F5               	movf	tablat,w,c
  1893   002194  0100               	movlb	0	; () banked
  1894   002196  6F60               	movwf	fputc@c& (0+255),b
  1895   002198  6B61               	clrf	(fputc@c+1)& (0+255),b
  1896   00219A  C09E  F062         	movff	vfpfcnvrt@fp,fputc@fp
  1897   00219E  C09F  F063         	movff	vfpfcnvrt@fp+1,fputc@fp+1
  1898   0021A2  EC4E  F018         	call	_fputc	;wreg free
  1899   0021A6  EFB7  F010         	goto	l3105
  1900   0021AA                     l938:
  1901   0021AA  0012               	return		;funcret
  1902   0021AC                     __end_of_vfpfcnvrt:
  1903                           	callstack 0
  1904                           
  1905 ;; *************** function _dtoa *****************
  1906 ;; Defined at:
  1907 ;;		line 443 in file "C:\Program Files\Microchip\xc8\v2.40\pic\sources\c99\common\doprnt.c"
  1908 ;; Parameters:    Size  Location     Type
  1909 ;;  fp              2   27[BANK0 ] PTR struct _IO_FILE
  1910 ;;		 -> sprintf@f(11), 
  1911 ;;  d               8   29[BANK0 ] long long 
  1912 ;; Auto vars:     Size  Location     Type
  1913 ;;  n               8   51[BANK0 ] long long 
  1914 ;;  i               2   59[BANK0 ] int 
  1915 ;;  w               2   49[BANK0 ] int 
  1916 ;;  p               2   47[BANK0 ] int 
  1917 ;;  s               1   61[BANK0 ] unsigned char 
  1918 ;; Return value:  Size  Location     Type
  1919 ;;                  1    wreg      void 
  1920 ;; Registers used:
  1921 ;;		wreg, fsr1l, fsr1h, fsr2l, fsr2h, status,2, status,0, cstack
  1922 ;; Tracked objects:
  1923 ;;		On entry : 0/0
  1924 ;;		On exit  : 0/0
  1925 ;;		Unchanged: 0/0
  1926 ;; Data sizes:     COMRAM   BANK0   BANK1   BANK2   BANK3   BANK4   BANK5   BANK6   BANK7
  1927 ;;      Params:         0      10       0       0       0       0       0       0       0
  1928 ;;      Locals:         0      17       0       0       0       0       0       0       0
  1929 ;;      Temps:          0       8       0       0       0       0       0       0       0
  1930 ;;      Totals:         0      35       0       0       0       0       0       0       0
  1931 ;;Total ram usage:       35 bytes
  1932 ;; Hardware stack levels used: 1
  1933 ;; Hardware stack levels required when called: 6
  1934 ;; This function calls:
  1935 ;;		___aodiv
  1936 ;;		___aomod
  1937 ;;		_abs
  1938 ;;		_pad
  1939 ;; This function is called by:
  1940 ;;		_vfpfcnvrt
  1941 ;; This function uses a non-reentrant model
  1942 ;;
  1943                           
  1944                           	psect	text6
  1945   001C52                     __ptext6:
  1946                           	callstack 0
  1947   001C52                     _dtoa:
  1948                           	callstack 21
  1949   001C52                     
  1950                           ;C:\Program Files\Microchip\xc8\v2.40\pic\sources\c99\common\doprnt.c: 443: static void 
      +                          dtoa(FILE *fp, long long d);C:\Program Files\Microchip\xc8\v2.40\pic\sources\c99\common\
      +                          doprnt.c: 444: {;C:\Program Files\Microchip\xc8\v2.40\pic\sources\c99\common\doprnt.c: 4
      +                          45:  char s;;C:\Program Files\Microchip\xc8\v2.40\pic\sources\c99\common\doprnt.c: 446: 
      +                              int i, p, w;;C:\Program Files\Microchip\xc8\v2.40\pic\sources\c99\common\doprnt.c: 4
      +                          47:     long long n;;C:\Program Files\Microchip\xc8\v2.40\pic\sources\c99\common\doprnt.
      +                          c: 450:     n = d;
  1951   001C52  C07D  F093         	movff	dtoa@d,dtoa@n
  1952   001C56  C07E  F094         	movff	dtoa@d+1,dtoa@n+1
  1953   001C5A  C07F  F095         	movff	dtoa@d+2,dtoa@n+2
  1954   001C5E  C080  F096         	movff	dtoa@d+3,dtoa@n+3
  1955   001C62  C081  F097         	movff	dtoa@d+4,dtoa@n+4
  1956   001C66  C082  F098         	movff	dtoa@d+5,dtoa@n+5
  1957   001C6A  C083  F099         	movff	dtoa@d+6,dtoa@n+6
  1958   001C6E  C084  F09A         	movff	dtoa@d+7,dtoa@n+7
  1959   001C72                     
  1960                           ;C:\Program Files\Microchip\xc8\v2.40\pic\sources\c99\common\doprnt.c: 451:     s = n < 
      +                          0 ? 1 : 0;
  1961   001C72  0100               	movlb	0	; () banked
  1962   001C74  BF9A               	btfsc	(dtoa@n+7)& (0+255),7,b
  1963   001C76  EF3F  F00E         	goto	u2331
  1964   001C7A  EF42  F00E         	goto	u2330
  1965   001C7E                     u2331:
  1966   001C7E  0E01               	movlw	1
  1967   001C80  EF43  F00E         	goto	u2340
  1968   001C84                     u2330:
  1969   001C84  0E00               	movlw	0
  1970   001C86                     u2340:
  1971   001C86  6F9D               	movwf	dtoa@s& (0+255),b
  1972   001C88                     
  1973                           ; BSR set to: 0
  1974                           ;C:\Program Files\Microchip\xc8\v2.40\pic\sources\c99\common\doprnt.c: 452:     if (s) {
  1975   001C88  519D               	movf	dtoa@s& (0+255),w,b
  1976   001C8A  B4D8               	btfsc	status,2,c
  1977   001C8C  EF4A  F00E         	goto	u2351
  1978   001C90  EF4C  F00E         	goto	u2350
  1979   001C94                     u2351:
  1980   001C94  EF5C  F00E         	goto	l2761
  1981   001C98                     u2350:
  1982   001C98                     
  1983                           ; BSR set to: 0
  1984                           ;C:\Program Files\Microchip\xc8\v2.40\pic\sources\c99\common\doprnt.c: 453:         n = 
      +                          -n;
  1985   001C98  1F9A               	comf	(dtoa@n+7)& (0+255),f,b
  1986   001C9A  1F99               	comf	(dtoa@n+6)& (0+255),f,b
  1987   001C9C  1F98               	comf	(dtoa@n+5)& (0+255),f,b
  1988   001C9E  1F97               	comf	(dtoa@n+4)& (0+255),f,b
  1989   001CA0  1F96               	comf	(dtoa@n+3)& (0+255),f,b
  1990   001CA2  1F95               	comf	(dtoa@n+2)& (0+255),f,b
  1991   001CA4  1F94               	comf	(dtoa@n+1)& (0+255),f,b
  1992   001CA6  6D93               	negf	dtoa@n& (0+255),b
  1993   001CA8  0E00               	movlw	0
  1994   001CAA  2394               	addwfc	(dtoa@n+1)& (0+255),f,b
  1995   001CAC  2395               	addwfc	(dtoa@n+2)& (0+255),f,b
  1996   001CAE  2396               	addwfc	(dtoa@n+3)& (0+255),f,b
  1997   001CB0  2397               	addwfc	(dtoa@n+4)& (0+255),f,b
  1998   001CB2  2398               	addwfc	(dtoa@n+5)& (0+255),f,b
  1999   001CB4  2399               	addwfc	(dtoa@n+6)& (0+255),f,b
  2000   001CB6  239A               	addwfc	(dtoa@n+7)& (0+255),f,b
  2001   001CB8                     l2761:
  2002                           
  2003                           ; BSR set to: 0
  2004                           ;C:\Program Files\Microchip\xc8\v2.40\pic\sources\c99\common\doprnt.c: 458:     if (!(pr
      +                          ec < 0)) {
  2005   001CB8  BFF1               	btfsc	(_prec+1)& (0+255),7,b
  2006   001CBA  EF61  F00E         	goto	u2361
  2007   001CBE  EF63  F00E         	goto	u2360
  2008   001CC2                     u2361:
  2009   001CC2  EF64  F00E         	goto	l2765
  2010   001CC6                     u2360:
  2011   001CC6                     
  2012                           ; BSR set to: 0
  2013                           ;C:\Program Files\Microchip\xc8\v2.40\pic\sources\c99\common\doprnt.c: 459:         flag
      +                          s &= ~(1 << 1);
  2014   001CC6  93F6               	bcf	_flags& (0+255),1,b
  2015   001CC8                     l2765:
  2016                           
  2017                           ; BSR set to: 0
  2018                           ;C:\Program Files\Microchip\xc8\v2.40\pic\sources\c99\common\doprnt.c: 462:     p = (0 <
      +                           prec) ? prec : 1;
  2019   001CC8  BFF1               	btfsc	(_prec+1)& (0+255),7,b
  2020   001CCA  EF71  F00E         	goto	u2370
  2021   001CCE  51F1               	movf	(_prec+1)& (0+255),w,b
  2022   001CD0  E106               	bnz	u2371
  2023   001CD2  05F0               	decf	_prec& (0+255),w,b
  2024   001CD4  B0D8               	btfsc	status,0,c
  2025   001CD6  EF6F  F00E         	goto	u2371
  2026   001CDA  EF71  F00E         	goto	u2370
  2027   001CDE                     u2371:
  2028   001CDE  EF77  F00E         	goto	l900
  2029   001CE2                     u2370:
  2030   001CE2                     
  2031                           ; BSR set to: 0
  2032   001CE2  0E00               	movlw	0
  2033   001CE4  6F90               	movwf	(dtoa@p+1)& (0+255),b
  2034   001CE6  0E01               	movlw	1
  2035   001CE8  6F8F               	movwf	dtoa@p& (0+255),b
  2036   001CEA  EF7B  F00E         	goto	l902
  2037   001CEE                     l900:
  2038                           
  2039                           ; BSR set to: 0
  2040   001CEE  C0F0  F08F         	movff	_prec,dtoa@p
  2041   001CF2  C0F1  F090         	movff	_prec+1,dtoa@p+1
  2042   001CF6                     l902:
  2043                           
  2044                           ; BSR set to: 0
  2045                           ;C:\Program Files\Microchip\xc8\v2.40\pic\sources\c99\common\doprnt.c: 463:     w = widt
      +                          h;
  2046   001CF6  C0EE  F091         	movff	_width,dtoa@w
  2047   001CFA  C0EF  F092         	movff	_width+1,dtoa@w+1
  2048   001CFE                     
  2049                           ; BSR set to: 0
  2050                           ;C:\Program Files\Microchip\xc8\v2.40\pic\sources\c99\common\doprnt.c: 464:     if (s
  2051   001CFE  519D               	movf	dtoa@s& (0+255),w,b
  2052   001D00  B4D8               	btfsc	status,2,c
  2053   001D02  EF85  F00E         	goto	u2381
  2054   001D06  EF87  F00E         	goto	u2380
  2055   001D0A                     u2381:
  2056   001D0A  EF9E  F00E         	goto	l903
  2057   001D0E                     u2380:
  2058   001D0E                     
  2059                           ; BSR set to: 0
  2060                           ;C:\Program Files\Microchip\xc8\v2.40\pic\sources\c99\common\doprnt.c: 468:     ) {;C:\P
      +                          rogram Files\Microchip\xc8\v2.40\pic\sources\c99\common\doprnt.c: 469:         --w;
  2061   001D0E  0791               	decf	dtoa@w& (0+255),f,b
  2062   001D10  A0D8               	btfss	status,0,c
  2063   001D12  0792               	decf	(dtoa@w+1)& (0+255),f,b
  2064   001D14                     
  2065                           ; BSR set to: 0
  2066                           ;C:\Program Files\Microchip\xc8\v2.40\pic\sources\c99\common\doprnt.c: 470:   s = s ? '-
      +                          ' : '+';
  2067   001D14  519D               	movf	dtoa@s& (0+255),w,b
  2068   001D16  A4D8               	btfss	status,2,c
  2069   001D18  EF90  F00E         	goto	u2391
  2070   001D1C  EF92  F00E         	goto	u2390
  2071   001D20                     u2391:
  2072   001D20  EF98  F00E         	goto	l2777
  2073   001D24                     u2390:
  2074   001D24                     
  2075                           ; BSR set to: 0
  2076   001D24  0E00               	movlw	0
  2077   001D26  6F8E               	movwf	(_dtoa$1055+1)& (0+255),b
  2078   001D28  0E2B               	movlw	43
  2079   001D2A  6F8D               	movwf	_dtoa$1055& (0+255),b
  2080   001D2C  EF9C  F00E         	goto	l2779
  2081   001D30                     l2777:
  2082                           
  2083                           ; BSR set to: 0
  2084   001D30  0E00               	movlw	0
  2085   001D32  6F8E               	movwf	(_dtoa$1055+1)& (0+255),b
  2086   001D34  0E2D               	movlw	45
  2087   001D36  6F8D               	movwf	_dtoa$1055& (0+255),b
  2088   001D38                     l2779:
  2089                           
  2090                           ; BSR set to: 0
  2091   001D38  C08D  F09D         	movff	_dtoa$1055,dtoa@s
  2092   001D3C                     l903:
  2093                           
  2094                           ; BSR set to: 0
  2095                           ;C:\Program Files\Microchip\xc8\v2.40\pic\sources\c99\common\doprnt.c: 480:     i = size
      +                          of(dbuf) - 1;
  2096   001D3C  0E00               	movlw	0
  2097   001D3E  6F9C               	movwf	(dtoa@i+1)& (0+255),b
  2098   001D40  0E1F               	movlw	31
  2099   001D42  6F9B               	movwf	dtoa@i& (0+255),b
  2100   001D44                     
  2101                           ; BSR set to: 0
  2102                           ;C:\Program Files\Microchip\xc8\v2.40\pic\sources\c99\common\doprnt.c: 481:     dbuf[i] 
      +                          = '\0';
  2103   001D44  0E00               	movlw	0
  2104   001D46  0101               	movlb	1	; () banked
  2105   001D48  6F1F               	movwf	(_dbuf+31)& (0+255),b
  2106                           
  2107                           ;C:\Program Files\Microchip\xc8\v2.40\pic\sources\c99\common\doprnt.c: 482:     while (!
      +                          (i < 1) && (n || (0 < p)
  2108   001D4A  EF24  F00F         	goto	l2793
  2109   001D4E                     l2783:
  2110                           
  2111                           ; BSR set to: 0
  2112                           ;C:\Program Files\Microchip\xc8\v2.40\pic\sources\c99\common\doprnt.c: 486:     )) {;C:\
      +                          Program Files\Microchip\xc8\v2.40\pic\sources\c99\common\doprnt.c: 487:         --i;
  2113   001D4E  079B               	decf	dtoa@i& (0+255),f,b
  2114   001D50  A0D8               	btfss	status,0,c
  2115   001D52  079C               	decf	(dtoa@i+1)& (0+255),f,b
  2116   001D54                     
  2117                           ; BSR set to: 0
  2118                           ;C:\Program Files\Microchip\xc8\v2.40\pic\sources\c99\common\doprnt.c: 488:         dbuf
      +                          [i] = (char)((int)'0' + abs(n % 10));
  2119   001D54  0E00               	movlw	low _dbuf
  2120   001D56  259B               	addwf	dtoa@i& (0+255),w,b
  2121   001D58  6ED9               	movwf	fsr2l,c
  2122   001D5A  0E01               	movlw	high _dbuf
  2123   001D5C  219C               	addwfc	(dtoa@i+1)& (0+255),w,b
  2124   001D5E  6EDA               	movwf	fsr2h,c
  2125   001D60  C093  F060         	movff	dtoa@n,___aomod@dividend
  2126   001D64  C094  F061         	movff	dtoa@n+1,___aomod@dividend+1
  2127   001D68  C095  F062         	movff	dtoa@n+2,___aomod@dividend+2
  2128   001D6C  C096  F063         	movff	dtoa@n+3,___aomod@dividend+3
  2129   001D70  C097  F064         	movff	dtoa@n+4,___aomod@dividend+4
  2130   001D74  C098  F065         	movff	dtoa@n+5,___aomod@dividend+5
  2131   001D78  C099  F066         	movff	dtoa@n+6,___aomod@dividend+6
  2132   001D7C  C09A  F067         	movff	dtoa@n+7,___aomod@dividend+7
  2133   001D80  0E0A               	movlw	10
  2134   001D82  6F68               	movwf	___aomod@divisor& (0+255),b
  2135   001D84  0E00               	movlw	0
  2136   001D86  6F69               	movwf	(___aomod@divisor+1)& (0+255),b
  2137   001D88  0E00               	movlw	0
  2138   001D8A  6F6A               	movwf	(___aomod@divisor+2)& (0+255),b
  2139   001D8C  0E00               	movlw	0
  2140   001D8E  6F6B               	movwf	(___aomod@divisor+3)& (0+255),b
  2141   001D90  0E00               	movlw	0
  2142   001D92  6F6C               	movwf	(___aomod@divisor+4)& (0+255),b
  2143   001D94  0E00               	movlw	0
  2144   001D96  6F6D               	movwf	(___aomod@divisor+5)& (0+255),b
  2145   001D98  0E00               	movlw	0
  2146   001D9A  6F6E               	movwf	(___aomod@divisor+6)& (0+255),b
  2147   001D9C  0E00               	movlw	0
  2148   001D9E  6F6F               	movwf	(___aomod@divisor+7)& (0+255),b
  2149   001DA0  EC5D  F014         	call	___aomod	;wreg free
  2150   001DA4  C060  F085         	movff	?___aomod,??_dtoa
  2151   001DA8  C061  F086         	movff	?___aomod+1,??_dtoa+1
  2152   001DAC  C062  F087         	movff	?___aomod+2,??_dtoa+2
  2153   001DB0  C063  F088         	movff	?___aomod+3,??_dtoa+3
  2154   001DB4  C064  F089         	movff	?___aomod+4,??_dtoa+4
  2155   001DB8  C065  F08A         	movff	?___aomod+5,??_dtoa+5
  2156   001DBC  C066  F08B         	movff	?___aomod+6,??_dtoa+6
  2157   001DC0  C067  F08C         	movff	?___aomod+7,??_dtoa+7
  2158   001DC4  C085  F072         	movff	??_dtoa,abs@a
  2159   001DC8  C086  F073         	movff	??_dtoa+1,abs@a+1
  2160   001DCC  EC85  F01B         	call	_abs	;wreg free
  2161   001DD0  0100               	movlb	0	; () banked
  2162   001DD2  5172               	movf	?_abs& (0+255),w,b
  2163   001DD4  0F30               	addlw	48
  2164   001DD6  6EDF               	movwf	indf2,c
  2165   001DD8                     
  2166                           ; BSR set to: 0
  2167                           ;C:\Program Files\Microchip\xc8\v2.40\pic\sources\c99\common\doprnt.c: 489:         --p;
  2168   001DD8  078F               	decf	dtoa@p& (0+255),f,b
  2169   001DDA  A0D8               	btfss	status,0,c
  2170   001DDC  0790               	decf	(dtoa@p+1)& (0+255),f,b
  2171   001DDE                     
  2172                           ; BSR set to: 0
  2173                           ;C:\Program Files\Microchip\xc8\v2.40\pic\sources\c99\common\doprnt.c: 490:         --w;
  2174   001DDE  0791               	decf	dtoa@w& (0+255),f,b
  2175   001DE0  A0D8               	btfss	status,0,c
  2176   001DE2  0792               	decf	(dtoa@w+1)& (0+255),f,b
  2177   001DE4                     
  2178                           ; BSR set to: 0
  2179                           ;C:\Program Files\Microchip\xc8\v2.40\pic\sources\c99\common\doprnt.c: 491:         n = 
      +                          n / 10;
  2180   001DE4  C093  F060         	movff	dtoa@n,___aodiv@dividend
  2181   001DE8  C094  F061         	movff	dtoa@n+1,___aodiv@dividend+1
  2182   001DEC  C095  F062         	movff	dtoa@n+2,___aodiv@dividend+2
  2183   001DF0  C096  F063         	movff	dtoa@n+3,___aodiv@dividend+3
  2184   001DF4  C097  F064         	movff	dtoa@n+4,___aodiv@dividend+4
  2185   001DF8  C098  F065         	movff	dtoa@n+5,___aodiv@dividend+5
  2186   001DFC  C099  F066         	movff	dtoa@n+6,___aodiv@dividend+6
  2187   001E00  C09A  F067         	movff	dtoa@n+7,___aodiv@dividend+7
  2188   001E04  0E0A               	movlw	10
  2189   001E06  6F68               	movwf	___aodiv@divisor& (0+255),b
  2190   001E08  0E00               	movlw	0
  2191   001E0A  6F69               	movwf	(___aodiv@divisor+1)& (0+255),b
  2192   001E0C  0E00               	movlw	0
  2193   001E0E  6F6A               	movwf	(___aodiv@divisor+2)& (0+255),b
  2194   001E10  0E00               	movlw	0
  2195   001E12  6F6B               	movwf	(___aodiv@divisor+3)& (0+255),b
  2196   001E14  0E00               	movlw	0
  2197   001E16  6F6C               	movwf	(___aodiv@divisor+4)& (0+255),b
  2198   001E18  0E00               	movlw	0
  2199   001E1A  6F6D               	movwf	(___aodiv@divisor+5)& (0+255),b
  2200   001E1C  0E00               	movlw	0
  2201   001E1E  6F6E               	movwf	(___aodiv@divisor+6)& (0+255),b
  2202   001E20  0E00               	movlw	0
  2203   001E22  6F6F               	movwf	(___aodiv@divisor+7)& (0+255),b
  2204   001E24  EC98  F013         	call	___aodiv	;wreg free
  2205   001E28  C060  F093         	movff	?___aodiv,dtoa@n
  2206   001E2C  C061  F094         	movff	?___aodiv+1,dtoa@n+1
  2207   001E30  C062  F095         	movff	?___aodiv+2,dtoa@n+2
  2208   001E34  C063  F096         	movff	?___aodiv+3,dtoa@n+3
  2209   001E38  C064  F097         	movff	?___aodiv+4,dtoa@n+4
  2210   001E3C  C065  F098         	movff	?___aodiv+5,dtoa@n+5
  2211   001E40  C066  F099         	movff	?___aodiv+6,dtoa@n+6
  2212   001E44  C067  F09A         	movff	?___aodiv+7,dtoa@n+7
  2213   001E48                     l2793:
  2214                           
  2215                           ;C:\Program Files\Microchip\xc8\v2.40\pic\sources\c99\common\doprnt.c: 482:     while (!
      +                          (i < 1) && (n || (0 < p)
  2216   001E48  0100               	movlb	0	; () banked
  2217   001E4A  BF9C               	btfsc	(dtoa@i+1)& (0+255),7,b
  2218   001E4C  EF30  F00F         	goto	u2401
  2219   001E50  519C               	movf	(dtoa@i+1)& (0+255),w,b
  2220   001E52  E108               	bnz	u2400
  2221   001E54  059B               	decf	dtoa@i& (0+255),w,b
  2222   001E56  A0D8               	btfss	status,0,c
  2223   001E58  EF30  F00F         	goto	u2401
  2224   001E5C  EF32  F00F         	goto	u2400
  2225   001E60                     u2401:
  2226   001E60  EF62  F00F         	goto	l2803
  2227   001E64                     u2400:
  2228   001E64                     
  2229                           ; BSR set to: 0
  2230   001E64  5193               	movf	dtoa@n& (0+255),w,b
  2231   001E66  1194               	iorwf	(dtoa@n+1)& (0+255),w,b
  2232   001E68  1195               	iorwf	(dtoa@n+2)& (0+255),w,b
  2233   001E6A  1196               	iorwf	(dtoa@n+3)& (0+255),w,b
  2234   001E6C  1197               	iorwf	(dtoa@n+4)& (0+255),w,b
  2235   001E6E  1198               	iorwf	(dtoa@n+5)& (0+255),w,b
  2236   001E70  1199               	iorwf	(dtoa@n+6)& (0+255),w,b
  2237   001E72  119A               	iorwf	(dtoa@n+7)& (0+255),w,b
  2238   001E74  A4D8               	btfss	status,2,c
  2239   001E76  EF3F  F00F         	goto	u2411
  2240   001E7A  EF41  F00F         	goto	u2410
  2241   001E7E                     u2411:
  2242   001E7E  EFA7  F00E         	goto	l2783
  2243   001E82                     u2410:
  2244   001E82                     
  2245                           ; BSR set to: 0
  2246   001E82  BF90               	btfsc	(dtoa@p+1)& (0+255),7,b
  2247   001E84  EF4E  F00F         	goto	u2420
  2248   001E88  5190               	movf	(dtoa@p+1)& (0+255),w,b
  2249   001E8A  E106               	bnz	u2421
  2250   001E8C  058F               	decf	dtoa@p& (0+255),w,b
  2251   001E8E  B0D8               	btfsc	status,0,c
  2252   001E90  EF4C  F00F         	goto	u2421
  2253   001E94  EF4E  F00F         	goto	u2420
  2254   001E98                     u2421:
  2255   001E98  EFA7  F00E         	goto	l2783
  2256   001E9C                     u2420:
  2257   001E9C                     
  2258                           ; BSR set to: 0
  2259   001E9C  BF92               	btfsc	(dtoa@w+1)& (0+255),7,b
  2260   001E9E  EF59  F00F         	goto	u2431
  2261   001EA2  5192               	movf	(dtoa@w+1)& (0+255),w,b
  2262   001EA4  E108               	bnz	u2430
  2263   001EA6  0591               	decf	dtoa@w& (0+255),w,b
  2264   001EA8  A0D8               	btfss	status,0,c
  2265   001EAA  EF59  F00F         	goto	u2431
  2266   001EAE  EF5B  F00F         	goto	u2430
  2267   001EB2                     u2431:
  2268   001EB2  EF62  F00F         	goto	l2803
  2269   001EB6                     u2430:
  2270   001EB6                     
  2271                           ; BSR set to: 0
  2272   001EB6  B3F6               	btfsc	_flags& (0+255),1,b
  2273   001EB8  EF60  F00F         	goto	u2441
  2274   001EBC  EF62  F00F         	goto	u2440
  2275   001EC0                     u2441:
  2276   001EC0  EFA7  F00E         	goto	l2783
  2277   001EC4                     u2440:
  2278   001EC4                     l2803:
  2279                           
  2280                           ; BSR set to: 0
  2281                           ;C:\Program Files\Microchip\xc8\v2.40\pic\sources\c99\common\doprnt.c: 495:     if (s !=
      +                           0) {
  2282   001EC4  519D               	movf	dtoa@s& (0+255),w,b
  2283   001EC6  B4D8               	btfsc	status,2,c
  2284   001EC8  EF68  F00F         	goto	u2451
  2285   001ECC  EF6A  F00F         	goto	u2450
  2286   001ED0                     u2451:
  2287   001ED0  EF75  F00F         	goto	l2809
  2288   001ED4                     u2450:
  2289   001ED4                     
  2290                           ; BSR set to: 0
  2291                           ;C:\Program Files\Microchip\xc8\v2.40\pic\sources\c99\common\doprnt.c: 496:         --i;
  2292   001ED4  079B               	decf	dtoa@i& (0+255),f,b
  2293   001ED6  A0D8               	btfss	status,0,c
  2294   001ED8  079C               	decf	(dtoa@i+1)& (0+255),f,b
  2295   001EDA                     
  2296                           ; BSR set to: 0
  2297                           ;C:\Program Files\Microchip\xc8\v2.40\pic\sources\c99\common\doprnt.c: 497:         dbuf
      +                          [i] = s;
  2298   001EDA  0E00               	movlw	low _dbuf
  2299   001EDC  259B               	addwf	dtoa@i& (0+255),w,b
  2300   001EDE  6ED9               	movwf	fsr2l,c
  2301   001EE0  0E01               	movlw	high _dbuf
  2302   001EE2  219C               	addwfc	(dtoa@i+1)& (0+255),w,b
  2303   001EE4  6EDA               	movwf	fsr2h,c
  2304   001EE6  C09D  FFDF         	movff	dtoa@s,indf2
  2305   001EEA                     l2809:
  2306                           
  2307                           ; BSR set to: 0
  2308                           ;C:\Program Files\Microchip\xc8\v2.40\pic\sources\c99\common\doprnt.c: 501:     return (
      +                          void) pad(fp, &dbuf[i], w);
  2309   001EEA  C07B  F070         	movff	dtoa@fp,pad@fp
  2310   001EEE  C07C  F071         	movff	dtoa@fp+1,pad@fp+1
  2311   001EF2  0E00               	movlw	low _dbuf
  2312   001EF4  259B               	addwf	dtoa@i& (0+255),w,b
  2313   001EF6  6F72               	movwf	pad@buf& (0+255),b
  2314   001EF8  0E01               	movlw	high _dbuf
  2315   001EFA  219C               	addwfc	(dtoa@i+1)& (0+255),w,b
  2316   001EFC  6F73               	movwf	(pad@buf+1)& (0+255),b
  2317   001EFE  C091  F074         	movff	dtoa@w,pad@p
  2318   001F02  C092  F075         	movff	dtoa@w+1,pad@p+1
  2319   001F06  EC0D  F019         	call	_pad	;wreg free
  2320   001F0A  0012               	return		;funcret
  2321   001F0C                     __end_of_dtoa:
  2322                           	callstack 0
  2323                           
  2324 ;; *************** function _pad *****************
  2325 ;; Defined at:
  2326 ;;		line 133 in file "C:\Program Files\Microchip\xc8\v2.40\pic\sources\c99\common\doprnt.c"
  2327 ;; Parameters:    Size  Location     Type
  2328 ;;  fp              2   16[BANK0 ] PTR struct _IO_FILE
  2329 ;;		 -> sprintf@f(11), 
  2330 ;;  buf             2   18[BANK0 ] PTR unsigned char 
  2331 ;;		 -> dbuf(32), 
  2332 ;;  p               2   20[BANK0 ] int 
  2333 ;; Auto vars:     Size  Location     Type
  2334 ;;  w               2   25[BANK0 ] int 
  2335 ;;  i               2   23[BANK0 ] int 
  2336 ;; Return value:  Size  Location     Type
  2337 ;;                  1    wreg      void 
  2338 ;; Registers used:
  2339 ;;		wreg, fsr1l, fsr1h, fsr2l, fsr2h, status,2, status,0, cstack
  2340 ;; Tracked objects:
  2341 ;;		On entry : 0/0
  2342 ;;		On exit  : 0/0
  2343 ;;		Unchanged: 0/0
  2344 ;; Data sizes:     COMRAM   BANK0   BANK1   BANK2   BANK3   BANK4   BANK5   BANK6   BANK7
  2345 ;;      Params:         0       6       0       0       0       0       0       0       0
  2346 ;;      Locals:         0       4       0       0       0       0       0       0       0
  2347 ;;      Temps:          0       1       0       0       0       0       0       0       0
  2348 ;;      Totals:         0      11       0       0       0       0       0       0       0
  2349 ;;Total ram usage:       11 bytes
  2350 ;; Hardware stack levels used: 1
  2351 ;; Hardware stack levels required when called: 5
  2352 ;; This function calls:
  2353 ;;		_fputc
  2354 ;;		_fputs
  2355 ;; This function is called by:
  2356 ;;		_dtoa
  2357 ;; This function uses a non-reentrant model
  2358 ;;
  2359                           
  2360                           	psect	text7
  2361   00321A                     __ptext7:
  2362                           	callstack 0
  2363   00321A                     _pad:
  2364                           	callstack 21
  2365   00321A                     
  2366                           ;C:\Program Files\Microchip\xc8\v2.40\pic\sources\c99\common\doprnt.c: 133: static void 
      +                          pad(FILE *fp, char *buf, int p);C:\Program Files\Microchip\xc8\v2.40\pic\sources\c99\com
      +                          mon\doprnt.c: 134: {;C:\Program Files\Microchip\xc8\v2.40\pic\sources\c99\common\doprnt.
      +                          c: 135:     int i, w;;C:\Program Files\Microchip\xc8\v2.40\pic\sources\c99\common\doprnt
      +                          .c: 139:     if (flags & (1 << 0)) {
  2367   00321A  0100               	movlb	0	; () banked
  2368   00321C  A1F6               	btfss	_flags& (0+255),0,b
  2369   00321E  EF13  F019         	goto	u2211
  2370   003222  EF15  F019         	goto	u2210
  2371   003226                     u2211:
  2372   003226  EF1F  F019         	goto	l2677
  2373   00322A                     u2210:
  2374   00322A                     
  2375                           ; BSR set to: 0
  2376                           ;C:\Program Files\Microchip\xc8\v2.40\pic\sources\c99\common\doprnt.c: 140:         fput
      +                          s((const char *)buf, fp);
  2377   00322A  C072  F069         	movff	pad@buf,fputs@s
  2378   00322E  C073  F06A         	movff	pad@buf+1,fputs@s+1
  2379   003232  C070  F06B         	movff	pad@fp,fputs@fp
  2380   003236  C071  F06C         	movff	pad@fp+1,fputs@fp+1
  2381   00323A  EC19  F01B         	call	_fputs	;wreg free
  2382   00323E                     l2677:
  2383                           
  2384                           ;C:\Program Files\Microchip\xc8\v2.40\pic\sources\c99\common\doprnt.c: 145:     w = (p <
      +                           0) ? 0 : p;
  2385   00323E  0100               	movlb	0	; () banked
  2386   003240  BF75               	btfsc	(pad@p+1)& (0+255),7,b
  2387   003242  EF25  F019         	goto	u2221
  2388   003246  EF27  F019         	goto	u2220
  2389   00324A                     u2221:
  2390   00324A  EF2D  F019         	goto	l2681
  2391   00324E                     u2220:
  2392   00324E                     
  2393                           ; BSR set to: 0
  2394   00324E  C074  F079         	movff	pad@p,pad@w
  2395   003252  C075  F07A         	movff	pad@p+1,pad@w+1
  2396   003256  EF31  F019         	goto	l889
  2397   00325A                     l2681:
  2398                           
  2399                           ; BSR set to: 0
  2400   00325A  0E00               	movlw	0
  2401   00325C  6F7A               	movwf	(pad@w+1)& (0+255),b
  2402   00325E  0E00               	movlw	0
  2403   003260  6F79               	movwf	pad@w& (0+255),b
  2404   003262                     l889:
  2405                           
  2406                           ; BSR set to: 0
  2407                           ;C:\Program Files\Microchip\xc8\v2.40\pic\sources\c99\common\doprnt.c: 146:     i = 0;
  2408   003262  0E00               	movlw	0
  2409   003264  6F78               	movwf	(pad@i+1)& (0+255),b
  2410   003266  0E00               	movlw	0
  2411   003268  6F77               	movwf	pad@i& (0+255),b
  2412                           
  2413                           ;C:\Program Files\Microchip\xc8\v2.40\pic\sources\c99\common\doprnt.c: 147:     while (i
      +                           < w) {
  2414   00326A  EF44  F019         	goto	l2687
  2415   00326E                     l2683:
  2416                           
  2417                           ; BSR set to: 0
  2418                           ;C:\Program Files\Microchip\xc8\v2.40\pic\sources\c99\common\doprnt.c: 148:         fput
      +                          c(' ', fp);
  2419   00326E  0E00               	movlw	0
  2420   003270  6F61               	movwf	(fputc@c+1)& (0+255),b
  2421   003272  0E20               	movlw	32
  2422   003274  6F60               	movwf	fputc@c& (0+255),b
  2423   003276  C070  F062         	movff	pad@fp,fputc@fp
  2424   00327A  C071  F063         	movff	pad@fp+1,fputc@fp+1
  2425   00327E  EC4E  F018         	call	_fputc	;wreg free
  2426   003282                     
  2427                           ;C:\Program Files\Microchip\xc8\v2.40\pic\sources\c99\common\doprnt.c: 149:         ++i;
  2428   003282  0100               	movlb	0	; () banked
  2429   003284  4B77               	infsnz	pad@i& (0+255),f,b
  2430   003286  2B78               	incf	(pad@i+1)& (0+255),f,b
  2431   003288                     l2687:
  2432                           
  2433                           ; BSR set to: 0
  2434                           ;C:\Program Files\Microchip\xc8\v2.40\pic\sources\c99\common\doprnt.c: 147:     while (i
      +                           < w) {
  2435   003288  5179               	movf	pad@w& (0+255),w,b
  2436   00328A  5D77               	subwf	pad@i& (0+255),w,b
  2437   00328C  5178               	movf	(pad@i+1)& (0+255),w,b
  2438   00328E  0A80               	xorlw	128
  2439   003290  6F76               	movwf	??_pad& (0+255),b
  2440   003292  517A               	movf	(pad@w+1)& (0+255),w,b
  2441   003294  0A80               	xorlw	128
  2442   003296  5976               	subwfb	??_pad& (0+255),w,b
  2443   003298  A0D8               	btfss	status,0,c
  2444   00329A  EF51  F019         	goto	u2231
  2445   00329E  EF53  F019         	goto	u2230
  2446   0032A2                     u2231:
  2447   0032A2  EF37  F019         	goto	l2683
  2448   0032A6                     u2230:
  2449   0032A6                     
  2450                           ; BSR set to: 0
  2451                           ;C:\Program Files\Microchip\xc8\v2.40\pic\sources\c99\common\doprnt.c: 154:     if (!(fl
      +                          ags & (1 << 0))) {
  2452   0032A6  B1F6               	btfsc	_flags& (0+255),0,b
  2453   0032A8  EF58  F019         	goto	u2241
  2454   0032AC  EF5A  F019         	goto	u2240
  2455   0032B0                     u2241:
  2456   0032B0  EF64  F019         	goto	l894
  2457   0032B4                     u2240:
  2458   0032B4                     
  2459                           ; BSR set to: 0
  2460                           ;C:\Program Files\Microchip\xc8\v2.40\pic\sources\c99\common\doprnt.c: 156:         fput
      +                          s((const char *)buf, fp);
  2461   0032B4  C072  F069         	movff	pad@buf,fputs@s
  2462   0032B8  C073  F06A         	movff	pad@buf+1,fputs@s+1
  2463   0032BC  C070  F06B         	movff	pad@fp,fputs@fp
  2464   0032C0  C071  F06C         	movff	pad@fp+1,fputs@fp+1
  2465   0032C4  EC19  F01B         	call	_fputs	;wreg free
  2466   0032C8                     l894:
  2467   0032C8  0012               	return		;funcret
  2468   0032CA                     __end_of_pad:
  2469                           	callstack 0
  2470                           
  2471 ;; *************** function _fputs *****************
  2472 ;; Defined at:
  2473 ;;		line 8 in file "C:\Program Files\Microchip\xc8\v2.40\pic\sources\c99\common\nf_fputs.c"
  2474 ;; Parameters:    Size  Location     Type
  2475 ;;  s               2    9[BANK0 ] PTR const unsigned char 
  2476 ;;		 -> dbuf(32), 
  2477 ;;  fp              2   11[BANK0 ] PTR struct _IO_FILE
  2478 ;;		 -> sprintf@f(11), 
  2479 ;; Auto vars:     Size  Location     Type
  2480 ;;  i               2   14[BANK0 ] int 
  2481 ;;  c               1   13[BANK0 ] unsigned char 
  2482 ;; Return value:  Size  Location     Type
  2483 ;;                  2    9[BANK0 ] int 
  2484 ;; Registers used:
  2485 ;;		wreg, fsr1l, fsr1h, fsr2l, fsr2h, status,2, status,0, cstack
  2486 ;; Tracked objects:
  2487 ;;		On entry : 0/0
  2488 ;;		On exit  : 0/0
  2489 ;;		Unchanged: 0/0
  2490 ;; Data sizes:     COMRAM   BANK0   BANK1   BANK2   BANK3   BANK4   BANK5   BANK6   BANK7
  2491 ;;      Params:         0       4       0       0       0       0       0       0       0
  2492 ;;      Locals:         0       3       0       0       0       0       0       0       0
  2493 ;;      Temps:          0       0       0       0       0       0       0       0       0
  2494 ;;      Totals:         0       7       0       0       0       0       0       0       0
  2495 ;;Total ram usage:        7 bytes
  2496 ;; Hardware stack levels used: 1
  2497 ;; Hardware stack levels required when called: 4
  2498 ;; This function calls:
  2499 ;;		_fputc
  2500 ;; This function is called by:
  2501 ;;		_pad
  2502 ;; This function uses a non-reentrant model
  2503 ;;
  2504                           
  2505                           	psect	text8
  2506   003632                     __ptext8:
  2507                           	callstack 0
  2508   003632                     _fputs:
  2509                           	callstack 21
  2510   003632  0E00               	movlw	0
  2511   003634  0100               	movlb	0	; () banked
  2512   003636  6F6F               	movwf	(fputs@i+1)& (0+255),b
  2513   003638  0E00               	movlw	0
  2514   00363A  6F6E               	movwf	fputs@i& (0+255),b
  2515   00363C  EF2C  F01B         	goto	l2585
  2516   003640                     l2581:
  2517                           
  2518                           ; BSR set to: 0
  2519   003640  C06D  F060         	movff	fputs@c,fputc@c
  2520   003644  6B61               	clrf	(fputc@c+1)& (0+255),b
  2521   003646  C06B  F062         	movff	fputs@fp,fputc@fp
  2522   00364A  C06C  F063         	movff	fputs@fp+1,fputc@fp+1
  2523   00364E  EC4E  F018         	call	_fputc	;wreg free
  2524   003652  0100               	movlb	0	; () banked
  2525   003654  4B6E               	infsnz	fputs@i& (0+255),f,b
  2526   003656  2B6F               	incf	(fputs@i+1)& (0+255),f,b
  2527   003658                     l2585:
  2528                           
  2529                           ; BSR set to: 0
  2530   003658  516E               	movf	fputs@i& (0+255),w,b
  2531   00365A  2569               	addwf	fputs@s& (0+255),w,b
  2532   00365C  6ED9               	movwf	fsr2l,c
  2533   00365E  516F               	movf	(fputs@i+1)& (0+255),w,b
  2534   003660  216A               	addwfc	(fputs@s+1)& (0+255),w,b
  2535   003662  6EDA               	movwf	fsr2h,c
  2536   003664  50DF               	movf	indf2,w,c
  2537   003666  6F6D               	movwf	fputs@c& (0+255),b
  2538   003668  516D               	movf	fputs@c& (0+255),w,b
  2539   00366A  A4D8               	btfss	status,2,c
  2540   00366C  EF3A  F01B         	goto	u2071
  2541   003670  EF3C  F01B         	goto	u2070
  2542   003674                     u2071:
  2543   003674  EF20  F01B         	goto	l2581
  2544   003678                     u2070:
  2545   003678                     
  2546                           ; BSR set to: 0
  2547   003678  0012               	return		;funcret
  2548   00367A                     __end_of_fputs:
  2549                           	callstack 0
  2550                           
  2551 ;; *************** function _fputc *****************
  2552 ;; Defined at:
  2553 ;;		line 8 in file "C:\Program Files\Microchip\xc8\v2.40\pic\sources\c99\common\nf_fputc.c"
  2554 ;; Parameters:    Size  Location     Type
  2555 ;;  c               2    0[BANK0 ] int 
  2556 ;;  fp              2    2[BANK0 ] PTR struct _IO_FILE
  2557 ;;		 -> sprintf@f(11), 
  2558 ;; Auto vars:     Size  Location     Type
  2559 ;;		None
  2560 ;; Return value:  Size  Location     Type
  2561 ;;                  2    0[BANK0 ] int 
  2562 ;; Registers used:
  2563 ;;		wreg, fsr1l, fsr1h, fsr2l, fsr2h, status,2, status,0, cstack
  2564 ;; Tracked objects:
  2565 ;;		On entry : 0/0
  2566 ;;		On exit  : 0/0
  2567 ;;		Unchanged: 0/0
  2568 ;; Data sizes:     COMRAM   BANK0   BANK1   BANK2   BANK3   BANK4   BANK5   BANK6   BANK7
  2569 ;;      Params:         0       4       0       0       0       0       0       0       0
  2570 ;;      Locals:         0       0       0       0       0       0       0       0       0
  2571 ;;      Temps:          0       5       0       0       0       0       0       0       0
  2572 ;;      Totals:         0       9       0       0       0       0       0       0       0
  2573 ;;Total ram usage:        9 bytes
  2574 ;; Hardware stack levels used: 1
  2575 ;; Hardware stack levels required when called: 3
  2576 ;; This function calls:
  2577 ;;		_putch
  2578 ;; This function is called by:
  2579 ;;		_pad
  2580 ;;		_vfpfcnvrt
  2581 ;;		_fputs
  2582 ;; This function uses a non-reentrant model
  2583 ;;
  2584                           
  2585                           	psect	text9
  2586   00309C                     __ptext9:
  2587                           	callstack 0
  2588   00309C                     _fputc:
  2589                           	callstack 24
  2590   00309C  0100               	movlb	0	; () banked
  2591   00309E  5162               	movf	fputc@fp& (0+255),w,b
  2592   0030A0  1163               	iorwf	(fputc@fp+1)& (0+255),w,b
  2593   0030A2  B4D8               	btfsc	status,2,c
  2594   0030A4  EF56  F018         	goto	u2031
  2595   0030A8  EF58  F018         	goto	u2030
  2596   0030AC                     u2031:
  2597   0030AC  EF61  F018         	goto	l2569
  2598   0030B0                     u2030:
  2599   0030B0                     
  2600                           ; BSR set to: 0
  2601   0030B0  5162               	movf	fputc@fp& (0+255),w,b
  2602   0030B2  1163               	iorwf	(fputc@fp+1)& (0+255),w,b
  2603   0030B4  A4D8               	btfss	status,2,c
  2604   0030B6  EF5F  F018         	goto	u2041
  2605   0030BA  EF61  F018         	goto	u2040
  2606   0030BE                     u2041:
  2607   0030BE  EF66  F018         	goto	l2571
  2608   0030C2                     u2040:
  2609   0030C2                     l2569:
  2610                           
  2611                           ; BSR set to: 0
  2612   0030C2  5160               	movf	fputc@c& (0+255),w,b
  2613   0030C4  EC19  F01C         	call	_putch
  2614   0030C8  EFB3  F018         	goto	l1002
  2615   0030CC                     l2571:
  2616                           
  2617                           ; BSR set to: 0
  2618   0030CC  EE20 F009          	lfsr	2,9
  2619   0030D0  5162               	movf	fputc@fp& (0+255),w,b
  2620   0030D2  26D9               	addwf	fsr2l,f,c
  2621   0030D4  5163               	movf	(fputc@fp+1)& (0+255),w,b
  2622   0030D6  22DA               	addwfc	fsr2h,f,c
  2623   0030D8  50DE               	movf	postinc2,w,c
  2624   0030DA  10DE               	iorwf	postinc2,w,c
  2625   0030DC  B4D8               	btfsc	status,2,c
  2626   0030DE  EF73  F018         	goto	u2051
  2627   0030E2  EF75  F018         	goto	u2050
  2628   0030E6                     u2051:
  2629   0030E6  EF90  F018         	goto	l2575
  2630   0030EA                     u2050:
  2631   0030EA                     
  2632                           ; BSR set to: 0
  2633   0030EA  EE20 F009          	lfsr	2,9
  2634   0030EE  5162               	movf	fputc@fp& (0+255),w,b
  2635   0030F0  26D9               	addwf	fsr2l,f,c
  2636   0030F2  5163               	movf	(fputc@fp+1)& (0+255),w,b
  2637   0030F4  22DA               	addwfc	fsr2h,f,c
  2638   0030F6  EE10 F003          	lfsr	1,3
  2639   0030FA  5162               	movf	fputc@fp& (0+255),w,b
  2640   0030FC  26E1               	addwf	fsr1l,f,c
  2641   0030FE  5163               	movf	(fputc@fp+1)& (0+255),w,b
  2642   003100  22E2               	addwfc	fsr1h,f,c
  2643   003102  50DE               	movf	postinc2,w,c
  2644   003104  5CE6               	subwf	postinc1,w,c
  2645   003106  50E6               	movf	postinc1,w,c
  2646   003108  0A80               	xorlw	128
  2647   00310A  6F68               	movwf	(??_fputc+4)& (0+255),b
  2648   00310C  50DE               	movf	postinc2,w,c
  2649   00310E  0A80               	xorlw	128
  2650   003110  5968               	subwfb	(??_fputc+4)& (0+255),w,b
  2651   003112  B0D8               	btfsc	status,0,c
  2652   003114  EF8E  F018         	goto	u2061
  2653   003118  EF90  F018         	goto	u2060
  2654   00311C                     u2061:
  2655   00311C  EFB3  F018         	goto	l1002
  2656   003120                     u2060:
  2657   003120                     l2575:
  2658                           
  2659                           ; BSR set to: 0
  2660   003120  EE20 F003          	lfsr	2,3
  2661   003124  5162               	movf	fputc@fp& (0+255),w,b
  2662   003126  26D9               	addwf	fsr2l,f,c
  2663   003128  5163               	movf	(fputc@fp+1)& (0+255),w,b
  2664   00312A  22DA               	addwfc	fsr2h,f,c
  2665   00312C  CFDE F064          	movff	postinc2,??_fputc
  2666   003130  CFDD F065          	movff	postdec2,??_fputc+1
  2667   003134  C062  FFD9         	movff	fputc@fp,fsr2l
  2668   003138  C063  FFDA         	movff	fputc@fp+1,fsr2h
  2669   00313C  CFDE F066          	movff	postinc2,??_fputc+2
  2670   003140  CFDD F067          	movff	postdec2,??_fputc+3
  2671   003144  5164               	movf	??_fputc& (0+255),w,b
  2672   003146  2566               	addwf	(??_fputc+2)& (0+255),w,b
  2673   003148  6ED9               	movwf	fsr2l,c
  2674   00314A  5165               	movf	(??_fputc+1)& (0+255),w,b
  2675   00314C  2167               	addwfc	(??_fputc+3)& (0+255),w,b
  2676   00314E  6EDA               	movwf	fsr2h,c
  2677   003150  C060  FFDF         	movff	fputc@c,indf2
  2678   003154  EE20 F003          	lfsr	2,3
  2679   003158  5162               	movf	fputc@fp& (0+255),w,b
  2680   00315A  26D9               	addwf	fsr2l,f,c
  2681   00315C  5163               	movf	(fputc@fp+1)& (0+255),w,b
  2682   00315E  22DA               	addwfc	fsr2h,f,c
  2683   003160  2ADE               	incf	postinc2,f,c
  2684   003162  0E00               	movlw	0
  2685   003164  22DD               	addwfc	postdec2,f,c
  2686   003166                     l1002:
  2687   003166  0012               	return		;funcret
  2688   003168                     __end_of_fputc:
  2689                           	callstack 0
  2690                           
  2691 ;; *************** function _putch *****************
  2692 ;; Defined at:
  2693 ;;		line 7 in file "C:\Program Files\Microchip\xc8\v2.40\pic\sources\c99\common\putch.c"
  2694 ;; Parameters:    Size  Location     Type
  2695 ;;  c               1    wreg     unsigned char 
  2696 ;; Auto vars:     Size  Location     Type
  2697 ;;  c               1    0[COMRAM] unsigned char 
  2698 ;; Return value:  Size  Location     Type
  2699 ;;                  1    wreg      void 
  2700 ;; Registers used:
  2701 ;;		wreg
  2702 ;; Tracked objects:
  2703 ;;		On entry : 0/0
  2704 ;;		On exit  : 0/0
  2705 ;;		Unchanged: 0/0
  2706 ;; Data sizes:     COMRAM   BANK0   BANK1   BANK2   BANK3   BANK4   BANK5   BANK6   BANK7
  2707 ;;      Params:         0       0       0       0       0       0       0       0       0
  2708 ;;      Locals:         0       0       0       0       0       0       0       0       0
  2709 ;;      Temps:          0       0       0       0       0       0       0       0       0
  2710 ;;      Totals:         0       0       0       0       0       0       0       0       0
  2711 ;;Total ram usage:        0 bytes
  2712 ;; Hardware stack levels used: 1
  2713 ;; Hardware stack levels required when called: 2
  2714 ;; This function calls:
  2715 ;;		Nothing
  2716 ;; This function is called by:
  2717 ;;		_fputc
  2718 ;; This function uses a non-reentrant model
  2719 ;;
  2720                           
  2721                           	psect	text10
  2722   003832                     __ptext10:
  2723                           	callstack 0
  2724   003832                     _putch:
  2725                           	callstack 24
  2726   003832  0012               	return		;funcret
  2727   003834                     __end_of_putch:
  2728                           	callstack 0
  2729                           
  2730 ;; *************** function _abs *****************
  2731 ;; Defined at:
  2732 ;;		line 1 in file "C:\Program Files\Microchip\xc8\v2.40\pic\sources\c99\common\abs.c"
  2733 ;; Parameters:    Size  Location     Type
  2734 ;;  a               2   18[BANK0 ] int 
  2735 ;; Auto vars:     Size  Location     Type
  2736 ;;		None
  2737 ;; Return value:  Size  Location     Type
  2738 ;;                  2   18[BANK0 ] int 
  2739 ;; Registers used:
  2740 ;;		wreg, status,2, status,0
  2741 ;; Tracked objects:
  2742 ;;		On entry : 0/0
  2743 ;;		On exit  : 0/0
  2744 ;;		Unchanged: 0/0
  2745 ;; Data sizes:     COMRAM   BANK0   BANK1   BANK2   BANK3   BANK4   BANK5   BANK6   BANK7
  2746 ;;      Params:         0       2       0       0       0       0       0       0       0
  2747 ;;      Locals:         0       0       0       0       0       0       0       0       0
  2748 ;;      Temps:          0       2       0       0       0       0       0       0       0
  2749 ;;      Totals:         0       4       0       0       0       0       0       0       0
  2750 ;;Total ram usage:        4 bytes
  2751 ;; Hardware stack levels used: 1
  2752 ;; Hardware stack levels required when called: 2
  2753 ;; This function calls:
  2754 ;;		Nothing
  2755 ;; This function is called by:
  2756 ;;		_dtoa
  2757 ;; This function uses a non-reentrant model
  2758 ;;
  2759                           
  2760                           	psect	text11
  2761   00370A                     __ptext11:
  2762                           	callstack 0
  2763   00370A                     _abs:
  2764                           	callstack 24
  2765   00370A  0100               	movlb	0	; () banked
  2766   00370C  BF73               	btfsc	(abs@a+1)& (0+255),7,b
  2767   00370E  EF93  F01B         	goto	u2250
  2768   003712  5173               	movf	(abs@a+1)& (0+255),w,b
  2769   003714  E106               	bnz	u2251
  2770   003716  0572               	decf	abs@a& (0+255),w,b
  2771   003718  B0D8               	btfsc	status,0,c
  2772   00371A  EF91  F01B         	goto	u2251
  2773   00371E  EF93  F01B         	goto	u2250
  2774   003722                     u2251:
  2775   003722  EFA1  F01B         	goto	l948
  2776   003726                     u2250:
  2777   003726                     
  2778                           ; BSR set to: 0
  2779   003726  C072  F074         	movff	abs@a,??_abs
  2780   00372A  C073  F075         	movff	abs@a+1,??_abs+1
  2781   00372E  1F74               	comf	??_abs& (0+255),f,b
  2782   003730  1F75               	comf	(??_abs+1)& (0+255),f,b
  2783   003732  4B74               	infsnz	??_abs& (0+255),f,b
  2784   003734  2B75               	incf	(??_abs+1)& (0+255),f,b
  2785   003736  C074  F072         	movff	??_abs,?_abs
  2786   00373A  C075  F073         	movff	??_abs+1,?_abs+1
  2787   00373E  EFA5  F01B         	goto	l951
  2788   003742                     l948:
  2789                           
  2790                           ; BSR set to: 0
  2791   003742  C072  F072         	movff	abs@a,?_abs
  2792   003746  C073  F073         	movff	abs@a+1,?_abs+1
  2793   00374A                     l951:
  2794                           
  2795                           ; BSR set to: 0
  2796   00374A  0012               	return		;funcret
  2797   00374C                     __end_of_abs:
  2798                           	callstack 0
  2799                           
  2800 ;; *************** function ___aomod *****************
  2801 ;; Defined at:
  2802 ;;		line 9 in file "C:\Program Files\Microchip\xc8\v2.40\pic\sources\c99\common\aomod.c"
  2803 ;; Parameters:    Size  Location     Type
  2804 ;;  dividend        8    0[BANK0 ] long long 
  2805 ;;  divisor         8    8[BANK0 ] long long 
  2806 ;; Auto vars:     Size  Location     Type
  2807 ;;  sign            1   17[BANK0 ] unsigned char 
  2808 ;;  counter         1   16[BANK0 ] unsigned char 
  2809 ;; Return value:  Size  Location     Type
  2810 ;;                  8    0[BANK0 ] long long 
  2811 ;; Registers used:
  2812 ;;		wreg, status,2, status,0
  2813 ;; Tracked objects:
  2814 ;;		On entry : 0/0
  2815 ;;		On exit  : 0/0
  2816 ;;		Unchanged: 0/0
  2817 ;; Data sizes:     COMRAM   BANK0   BANK1   BANK2   BANK3   BANK4   BANK5   BANK6   BANK7
  2818 ;;      Params:         0      16       0       0       0       0       0       0       0
  2819 ;;      Locals:         0       2       0       0       0       0       0       0       0
  2820 ;;      Temps:          0       0       0       0       0       0       0       0       0
  2821 ;;      Totals:         0      18       0       0       0       0       0       0       0
  2822 ;;Total ram usage:       18 bytes
  2823 ;; Hardware stack levels used: 1
  2824 ;; Hardware stack levels required when called: 2
  2825 ;; This function calls:
  2826 ;;		Nothing
  2827 ;; This function is called by:
  2828 ;;		_dtoa
  2829 ;; This function uses a non-reentrant model
  2830 ;;
  2831                           
  2832                           	psect	text12
  2833   0028BA                     __ptext12:
  2834                           	callstack 0
  2835   0028BA                     ___aomod:
  2836                           	callstack 24
  2837   0028BA  0E00               	movlw	0
  2838   0028BC  0100               	movlb	0	; () banked
  2839   0028BE  6F71               	movwf	___aomod@sign& (0+255),b
  2840   0028C0                     
  2841                           ; BSR set to: 0
  2842   0028C0  BF67               	btfsc	(___aomod@dividend+7)& (0+255),7,b
  2843   0028C2  EF67  F014         	goto	u2150
  2844   0028C6  EF65  F014         	goto	u2151
  2845   0028CA                     u2151:
  2846   0028CA  EF79  F014         	goto	l2645
  2847   0028CE                     u2150:
  2848   0028CE                     
  2849                           ; BSR set to: 0
  2850   0028CE  1F67               	comf	(___aomod@dividend+7)& (0+255),f,b
  2851   0028D0  1F66               	comf	(___aomod@dividend+6)& (0+255),f,b
  2852   0028D2  1F65               	comf	(___aomod@dividend+5)& (0+255),f,b
  2853   0028D4  1F64               	comf	(___aomod@dividend+4)& (0+255),f,b
  2854   0028D6  1F63               	comf	(___aomod@dividend+3)& (0+255),f,b
  2855   0028D8  1F62               	comf	(___aomod@dividend+2)& (0+255),f,b
  2856   0028DA  1F61               	comf	(___aomod@dividend+1)& (0+255),f,b
  2857   0028DC  6D60               	negf	___aomod@dividend& (0+255),b
  2858   0028DE  0E00               	movlw	0
  2859   0028E0  2361               	addwfc	(___aomod@dividend+1)& (0+255),f,b
  2860   0028E2  2362               	addwfc	(___aomod@dividend+2)& (0+255),f,b
  2861   0028E4  2363               	addwfc	(___aomod@dividend+3)& (0+255),f,b
  2862   0028E6  2364               	addwfc	(___aomod@dividend+4)& (0+255),f,b
  2863   0028E8  2365               	addwfc	(___aomod@dividend+5)& (0+255),f,b
  2864   0028EA  2366               	addwfc	(___aomod@dividend+6)& (0+255),f,b
  2865   0028EC  2367               	addwfc	(___aomod@dividend+7)& (0+255),f,b
  2866   0028EE                     
  2867                           ; BSR set to: 0
  2868   0028EE  0E01               	movlw	1
  2869   0028F0  6F71               	movwf	___aomod@sign& (0+255),b
  2870   0028F2                     l2645:
  2871                           
  2872                           ; BSR set to: 0
  2873   0028F2  BF6F               	btfsc	(___aomod@divisor+7)& (0+255),7,b
  2874   0028F4  EF80  F014         	goto	u2160
  2875   0028F8  EF7E  F014         	goto	u2161
  2876   0028FC                     u2161:
  2877   0028FC  EF90  F014         	goto	l2649
  2878   002900                     u2160:
  2879   002900                     
  2880                           ; BSR set to: 0
  2881   002900  1F6F               	comf	(___aomod@divisor+7)& (0+255),f,b
  2882   002902  1F6E               	comf	(___aomod@divisor+6)& (0+255),f,b
  2883   002904  1F6D               	comf	(___aomod@divisor+5)& (0+255),f,b
  2884   002906  1F6C               	comf	(___aomod@divisor+4)& (0+255),f,b
  2885   002908  1F6B               	comf	(___aomod@divisor+3)& (0+255),f,b
  2886   00290A  1F6A               	comf	(___aomod@divisor+2)& (0+255),f,b
  2887   00290C  1F69               	comf	(___aomod@divisor+1)& (0+255),f,b
  2888   00290E  6D68               	negf	___aomod@divisor& (0+255),b
  2889   002910  0E00               	movlw	0
  2890   002912  2369               	addwfc	(___aomod@divisor+1)& (0+255),f,b
  2891   002914  236A               	addwfc	(___aomod@divisor+2)& (0+255),f,b
  2892   002916  236B               	addwfc	(___aomod@divisor+3)& (0+255),f,b
  2893   002918  236C               	addwfc	(___aomod@divisor+4)& (0+255),f,b
  2894   00291A  236D               	addwfc	(___aomod@divisor+5)& (0+255),f,b
  2895   00291C  236E               	addwfc	(___aomod@divisor+6)& (0+255),f,b
  2896   00291E  236F               	addwfc	(___aomod@divisor+7)& (0+255),f,b
  2897   002920                     l2649:
  2898                           
  2899                           ; BSR set to: 0
  2900   002920  5168               	movf	___aomod@divisor& (0+255),w,b
  2901   002922  1169               	iorwf	(___aomod@divisor+1)& (0+255),w,b
  2902   002924  116A               	iorwf	(___aomod@divisor+2)& (0+255),w,b
  2903   002926  116B               	iorwf	(___aomod@divisor+3)& (0+255),w,b
  2904   002928  116C               	iorwf	(___aomod@divisor+4)& (0+255),w,b
  2905   00292A  116D               	iorwf	(___aomod@divisor+5)& (0+255),w,b
  2906   00292C  116E               	iorwf	(___aomod@divisor+6)& (0+255),w,b
  2907   00292E  116F               	iorwf	(___aomod@divisor+7)& (0+255),w,b
  2908   002930  B4D8               	btfsc	status,2,c
  2909   002932  EF9D  F014         	goto	u2171
  2910   002936  EF9F  F014         	goto	u2170
  2911   00293A                     u2171:
  2912   00293A  EFE7  F014         	goto	l2665
  2913   00293E                     u2170:
  2914   00293E                     
  2915                           ; BSR set to: 0
  2916   00293E  0E01               	movlw	1
  2917   002940  6F70               	movwf	___aomod@counter& (0+255),b
  2918   002942  EFAD  F014         	goto	l2655
  2919   002946                     l2653:
  2920                           
  2921                           ; BSR set to: 0
  2922   002946  90D8               	bcf	status,0,c
  2923   002948  3768               	rlcf	___aomod@divisor& (0+255),f,b
  2924   00294A  3769               	rlcf	(___aomod@divisor+1)& (0+255),f,b
  2925   00294C  376A               	rlcf	(___aomod@divisor+2)& (0+255),f,b
  2926   00294E  376B               	rlcf	(___aomod@divisor+3)& (0+255),f,b
  2927   002950  376C               	rlcf	(___aomod@divisor+4)& (0+255),f,b
  2928   002952  376D               	rlcf	(___aomod@divisor+5)& (0+255),f,b
  2929   002954  376E               	rlcf	(___aomod@divisor+6)& (0+255),f,b
  2930   002956  376F               	rlcf	(___aomod@divisor+7)& (0+255),f,b
  2931   002958  2B70               	incf	___aomod@counter& (0+255),f,b
  2932   00295A                     l2655:
  2933                           
  2934                           ; BSR set to: 0
  2935   00295A  AF6F               	btfss	(___aomod@divisor+7)& (0+255),7,b
  2936   00295C  EFB2  F014         	goto	u2181
  2937   002960  EFB4  F014         	goto	u2180
  2938   002964                     u2181:
  2939   002964  EFA3  F014         	goto	l2653
  2940   002968                     u2180:
  2941   002968                     l2657:
  2942                           
  2943                           ; BSR set to: 0
  2944   002968  5168               	movf	___aomod@divisor& (0+255),w,b
  2945   00296A  5D60               	subwf	___aomod@dividend& (0+255),w,b
  2946   00296C  5169               	movf	(___aomod@divisor+1)& (0+255),w,b
  2947   00296E  5961               	subwfb	(___aomod@dividend+1)& (0+255),w,b
  2948   002970  516A               	movf	(___aomod@divisor+2)& (0+255),w,b
  2949   002972  5962               	subwfb	(___aomod@dividend+2)& (0+255),w,b
  2950   002974  516B               	movf	(___aomod@divisor+3)& (0+255),w,b
  2951   002976  5963               	subwfb	(___aomod@dividend+3)& (0+255),w,b
  2952   002978  516C               	movf	(___aomod@divisor+4)& (0+255),w,b
  2953   00297A  5964               	subwfb	(___aomod@dividend+4)& (0+255),w,b
  2954   00297C  516D               	movf	(___aomod@divisor+5)& (0+255),w,b
  2955   00297E  5965               	subwfb	(___aomod@dividend+5)& (0+255),w,b
  2956   002980  516E               	movf	(___aomod@divisor+6)& (0+255),w,b
  2957   002982  5966               	subwfb	(___aomod@dividend+6)& (0+255),w,b
  2958   002984  516F               	movf	(___aomod@divisor+7)& (0+255),w,b
  2959   002986  5967               	subwfb	(___aomod@dividend+7)& (0+255),w,b
  2960   002988  A0D8               	btfss	status,0,c
  2961   00298A  EFC9  F014         	goto	u2191
  2962   00298E  EFCB  F014         	goto	u2190
  2963   002992                     u2191:
  2964   002992  EFDB  F014         	goto	l2661
  2965   002996                     u2190:
  2966   002996                     
  2967                           ; BSR set to: 0
  2968   002996  5168               	movf	___aomod@divisor& (0+255),w,b
  2969   002998  5F60               	subwf	___aomod@dividend& (0+255),f,b
  2970   00299A  5169               	movf	(___aomod@divisor+1)& (0+255),w,b
  2971   00299C  5B61               	subwfb	(___aomod@dividend+1)& (0+255),f,b
  2972   00299E  516A               	movf	(___aomod@divisor+2)& (0+255),w,b
  2973   0029A0  5B62               	subwfb	(___aomod@dividend+2)& (0+255),f,b
  2974   0029A2  516B               	movf	(___aomod@divisor+3)& (0+255),w,b
  2975   0029A4  5B63               	subwfb	(___aomod@dividend+3)& (0+255),f,b
  2976   0029A6  516C               	movf	(___aomod@divisor+4)& (0+255),w,b
  2977   0029A8  5B64               	subwfb	(___aomod@dividend+4)& (0+255),f,b
  2978   0029AA  516D               	movf	(___aomod@divisor+5)& (0+255),w,b
  2979   0029AC  5B65               	subwfb	(___aomod@dividend+5)& (0+255),f,b
  2980   0029AE  516E               	movf	(___aomod@divisor+6)& (0+255),w,b
  2981   0029B0  5B66               	subwfb	(___aomod@dividend+6)& (0+255),f,b
  2982   0029B2  516F               	movf	(___aomod@divisor+7)& (0+255),w,b
  2983   0029B4  5B67               	subwfb	(___aomod@dividend+7)& (0+255),f,b
  2984   0029B6                     l2661:
  2985                           
  2986                           ; BSR set to: 0
  2987   0029B6  90D8               	bcf	status,0,c
  2988   0029B8  336F               	rrcf	(___aomod@divisor+7)& (0+255),f,b
  2989   0029BA  336E               	rrcf	(___aomod@divisor+6)& (0+255),f,b
  2990   0029BC  336D               	rrcf	(___aomod@divisor+5)& (0+255),f,b
  2991   0029BE  336C               	rrcf	(___aomod@divisor+4)& (0+255),f,b
  2992   0029C0  336B               	rrcf	(___aomod@divisor+3)& (0+255),f,b
  2993   0029C2  336A               	rrcf	(___aomod@divisor+2)& (0+255),f,b
  2994   0029C4  3369               	rrcf	(___aomod@divisor+1)& (0+255),f,b
  2995   0029C6  3368               	rrcf	___aomod@divisor& (0+255),f,b
  2996   0029C8                     
  2997                           ; BSR set to: 0
  2998   0029C8  2F70               	decfsz	___aomod@counter& (0+255),f,b
  2999   0029CA  EFB4  F014         	goto	l2657
  3000   0029CE                     l2665:
  3001                           
  3002                           ; BSR set to: 0
  3003   0029CE  5171               	movf	___aomod@sign& (0+255),w,b
  3004   0029D0  B4D8               	btfsc	status,2,c
  3005   0029D2  EFED  F014         	goto	u2201
  3006   0029D6  EFEF  F014         	goto	u2200
  3007   0029DA                     u2201:
  3008   0029DA  EFFF  F014         	goto	l2669
  3009   0029DE                     u2200:
  3010   0029DE                     
  3011                           ; BSR set to: 0
  3012   0029DE  1F67               	comf	(___aomod@dividend+7)& (0+255),f,b
  3013   0029E0  1F66               	comf	(___aomod@dividend+6)& (0+255),f,b
  3014   0029E2  1F65               	comf	(___aomod@dividend+5)& (0+255),f,b
  3015   0029E4  1F64               	comf	(___aomod@dividend+4)& (0+255),f,b
  3016   0029E6  1F63               	comf	(___aomod@dividend+3)& (0+255),f,b
  3017   0029E8  1F62               	comf	(___aomod@dividend+2)& (0+255),f,b
  3018   0029EA  1F61               	comf	(___aomod@dividend+1)& (0+255),f,b
  3019   0029EC  6D60               	negf	___aomod@dividend& (0+255),b
  3020   0029EE  0E00               	movlw	0
  3021   0029F0  2361               	addwfc	(___aomod@dividend+1)& (0+255),f,b
  3022   0029F2  2362               	addwfc	(___aomod@dividend+2)& (0+255),f,b
  3023   0029F4  2363               	addwfc	(___aomod@dividend+3)& (0+255),f,b
  3024   0029F6  2364               	addwfc	(___aomod@dividend+4)& (0+255),f,b
  3025   0029F8  2365               	addwfc	(___aomod@dividend+5)& (0+255),f,b
  3026   0029FA  2366               	addwfc	(___aomod@dividend+6)& (0+255),f,b
  3027   0029FC  2367               	addwfc	(___aomod@dividend+7)& (0+255),f,b
  3028   0029FE                     l2669:
  3029                           
  3030                           ; BSR set to: 0
  3031   0029FE  C060  F060         	movff	___aomod@dividend,?___aomod
  3032   002A02  C061  F061         	movff	___aomod@dividend+1,?___aomod+1
  3033   002A06  C062  F062         	movff	___aomod@dividend+2,?___aomod+2
  3034   002A0A  C063  F063         	movff	___aomod@dividend+3,?___aomod+3
  3035   002A0E  C064  F064         	movff	___aomod@dividend+4,?___aomod+4
  3036   002A12  C065  F065         	movff	___aomod@dividend+5,?___aomod+5
  3037   002A16  C066  F066         	movff	___aomod@dividend+6,?___aomod+6
  3038   002A1A  C067  F067         	movff	___aomod@dividend+7,?___aomod+7
  3039   002A1E                     
  3040                           ; BSR set to: 0
  3041   002A1E  0012               	return		;funcret
  3042   002A20                     __end_of___aomod:
  3043                           	callstack 0
  3044                           
  3045 ;; *************** function ___aodiv *****************
  3046 ;; Defined at:
  3047 ;;		line 9 in file "C:\Program Files\Microchip\xc8\v2.40\pic\sources\c99\common\aodiv.c"
  3048 ;; Parameters:    Size  Location     Type
  3049 ;;  dividend        8    0[BANK0 ] long long 
  3050 ;;  divisor         8    8[BANK0 ] long long 
  3051 ;; Auto vars:     Size  Location     Type
  3052 ;;  quotient        8   18[BANK0 ] long long 
  3053 ;;  sign            1   17[BANK0 ] unsigned char 
  3054 ;;  counter         1   16[BANK0 ] unsigned char 
  3055 ;; Return value:  Size  Location     Type
  3056 ;;                  8    0[BANK0 ] long long 
  3057 ;; Registers used:
  3058 ;;		wreg, fsr2l, fsr2h, status,2, status,0
  3059 ;; Tracked objects:
  3060 ;;		On entry : 0/0
  3061 ;;		On exit  : 0/0
  3062 ;;		Unchanged: 0/0
  3063 ;; Data sizes:     COMRAM   BANK0   BANK1   BANK2   BANK3   BANK4   BANK5   BANK6   BANK7
  3064 ;;      Params:         0      16       0       0       0       0       0       0       0
  3065 ;;      Locals:         0      10       0       0       0       0       0       0       0
  3066 ;;      Temps:          0       0       0       0       0       0       0       0       0
  3067 ;;      Totals:         0      26       0       0       0       0       0       0       0
  3068 ;;Total ram usage:       26 bytes
  3069 ;; Hardware stack levels used: 1
  3070 ;; Hardware stack levels required when called: 2
  3071 ;; This function calls:
  3072 ;;		Nothing
  3073 ;; This function is called by:
  3074 ;;		_dtoa
  3075 ;; This function uses a non-reentrant model
  3076 ;;
  3077                           
  3078                           	psect	text13
  3079   002730                     __ptext13:
  3080                           	callstack 0
  3081   002730                     ___aodiv:
  3082                           	callstack 24
  3083   002730  0E00               	movlw	0
  3084   002732  0100               	movlb	0	; () banked
  3085   002734  6F71               	movwf	___aodiv@sign& (0+255),b
  3086   002736                     
  3087                           ; BSR set to: 0
  3088   002736  BF6F               	btfsc	(___aodiv@divisor+7)& (0+255),7,b
  3089   002738  EFA2  F013         	goto	u2080
  3090   00273C  EFA0  F013         	goto	u2081
  3091   002740                     u2081:
  3092   002740  EFB4  F013         	goto	l2601
  3093   002744                     u2080:
  3094   002744                     
  3095                           ; BSR set to: 0
  3096   002744  1F6F               	comf	(___aodiv@divisor+7)& (0+255),f,b
  3097   002746  1F6E               	comf	(___aodiv@divisor+6)& (0+255),f,b
  3098   002748  1F6D               	comf	(___aodiv@divisor+5)& (0+255),f,b
  3099   00274A  1F6C               	comf	(___aodiv@divisor+4)& (0+255),f,b
  3100   00274C  1F6B               	comf	(___aodiv@divisor+3)& (0+255),f,b
  3101   00274E  1F6A               	comf	(___aodiv@divisor+2)& (0+255),f,b
  3102   002750  1F69               	comf	(___aodiv@divisor+1)& (0+255),f,b
  3103   002752  6D68               	negf	___aodiv@divisor& (0+255),b
  3104   002754  0E00               	movlw	0
  3105   002756  2369               	addwfc	(___aodiv@divisor+1)& (0+255),f,b
  3106   002758  236A               	addwfc	(___aodiv@divisor+2)& (0+255),f,b
  3107   00275A  236B               	addwfc	(___aodiv@divisor+3)& (0+255),f,b
  3108   00275C  236C               	addwfc	(___aodiv@divisor+4)& (0+255),f,b
  3109   00275E  236D               	addwfc	(___aodiv@divisor+5)& (0+255),f,b
  3110   002760  236E               	addwfc	(___aodiv@divisor+6)& (0+255),f,b
  3111   002762  236F               	addwfc	(___aodiv@divisor+7)& (0+255),f,b
  3112   002764                     
  3113                           ; BSR set to: 0
  3114   002764  0E01               	movlw	1
  3115   002766  6F71               	movwf	___aodiv@sign& (0+255),b
  3116   002768                     l2601:
  3117                           
  3118                           ; BSR set to: 0
  3119   002768  BF67               	btfsc	(___aodiv@dividend+7)& (0+255),7,b
  3120   00276A  EFBB  F013         	goto	u2090
  3121   00276E  EFB9  F013         	goto	u2091
  3122   002772                     u2091:
  3123   002772  EFCD  F013         	goto	l2607
  3124   002776                     u2090:
  3125   002776                     
  3126                           ; BSR set to: 0
  3127   002776  1F67               	comf	(___aodiv@dividend+7)& (0+255),f,b
  3128   002778  1F66               	comf	(___aodiv@dividend+6)& (0+255),f,b
  3129   00277A  1F65               	comf	(___aodiv@dividend+5)& (0+255),f,b
  3130   00277C  1F64               	comf	(___aodiv@dividend+4)& (0+255),f,b
  3131   00277E  1F63               	comf	(___aodiv@dividend+3)& (0+255),f,b
  3132   002780  1F62               	comf	(___aodiv@dividend+2)& (0+255),f,b
  3133   002782  1F61               	comf	(___aodiv@dividend+1)& (0+255),f,b
  3134   002784  6D60               	negf	___aodiv@dividend& (0+255),b
  3135   002786  0E00               	movlw	0
  3136   002788  2361               	addwfc	(___aodiv@dividend+1)& (0+255),f,b
  3137   00278A  2362               	addwfc	(___aodiv@dividend+2)& (0+255),f,b
  3138   00278C  2363               	addwfc	(___aodiv@dividend+3)& (0+255),f,b
  3139   00278E  2364               	addwfc	(___aodiv@dividend+4)& (0+255),f,b
  3140   002790  2365               	addwfc	(___aodiv@dividend+5)& (0+255),f,b
  3141   002792  2366               	addwfc	(___aodiv@dividend+6)& (0+255),f,b
  3142   002794  2367               	addwfc	(___aodiv@dividend+7)& (0+255),f,b
  3143   002796                     
  3144                           ; BSR set to: 0
  3145   002796  0E01               	movlw	1
  3146   002798  1B71               	xorwf	___aodiv@sign& (0+255),f,b
  3147   00279A                     l2607:
  3148                           
  3149                           ; BSR set to: 0
  3150   00279A  EE20  F072         	lfsr	2,___aodiv@quotient
  3151   00279E  0E07               	movlw	7
  3152   0027A0                     u2101:
  3153   0027A0  6ADE               	clrf	postinc2,c
  3154   0027A2  06E8               	decf	wreg,f,c
  3155   0027A4  E2FD               	bc	u2101
  3156   0027A6                     
  3157                           ; BSR set to: 0
  3158   0027A6  5168               	movf	___aodiv@divisor& (0+255),w,b
  3159   0027A8  1169               	iorwf	(___aodiv@divisor+1)& (0+255),w,b
  3160   0027AA  116A               	iorwf	(___aodiv@divisor+2)& (0+255),w,b
  3161   0027AC  116B               	iorwf	(___aodiv@divisor+3)& (0+255),w,b
  3162   0027AE  116C               	iorwf	(___aodiv@divisor+4)& (0+255),w,b
  3163   0027B0  116D               	iorwf	(___aodiv@divisor+5)& (0+255),w,b
  3164   0027B2  116E               	iorwf	(___aodiv@divisor+6)& (0+255),w,b
  3165   0027B4  116F               	iorwf	(___aodiv@divisor+7)& (0+255),w,b
  3166   0027B6  B4D8               	btfsc	status,2,c
  3167   0027B8  EFE0  F013         	goto	u2111
  3168   0027BC  EFE2  F013         	goto	u2110
  3169   0027C0                     u2111:
  3170   0027C0  EF34  F014         	goto	l2629
  3171   0027C4                     u2110:
  3172   0027C4                     
  3173                           ; BSR set to: 0
  3174   0027C4  0E01               	movlw	1
  3175   0027C6  6F70               	movwf	___aodiv@counter& (0+255),b
  3176   0027C8  EFF0  F013         	goto	l2615
  3177   0027CC                     l2613:
  3178                           
  3179                           ; BSR set to: 0
  3180   0027CC  90D8               	bcf	status,0,c
  3181   0027CE  3768               	rlcf	___aodiv@divisor& (0+255),f,b
  3182   0027D0  3769               	rlcf	(___aodiv@divisor+1)& (0+255),f,b
  3183   0027D2  376A               	rlcf	(___aodiv@divisor+2)& (0+255),f,b
  3184   0027D4  376B               	rlcf	(___aodiv@divisor+3)& (0+255),f,b
  3185   0027D6  376C               	rlcf	(___aodiv@divisor+4)& (0+255),f,b
  3186   0027D8  376D               	rlcf	(___aodiv@divisor+5)& (0+255),f,b
  3187   0027DA  376E               	rlcf	(___aodiv@divisor+6)& (0+255),f,b
  3188   0027DC  376F               	rlcf	(___aodiv@divisor+7)& (0+255),f,b
  3189   0027DE  2B70               	incf	___aodiv@counter& (0+255),f,b
  3190   0027E0                     l2615:
  3191                           
  3192                           ; BSR set to: 0
  3193   0027E0  AF6F               	btfss	(___aodiv@divisor+7)& (0+255),7,b
  3194   0027E2  EFF5  F013         	goto	u2121
  3195   0027E6  EFF7  F013         	goto	u2120
  3196   0027EA                     u2121:
  3197   0027EA  EFE6  F013         	goto	l2613
  3198   0027EE                     u2120:
  3199   0027EE                     l2617:
  3200                           
  3201                           ; BSR set to: 0
  3202   0027EE  90D8               	bcf	status,0,c
  3203   0027F0  3772               	rlcf	___aodiv@quotient& (0+255),f,b
  3204   0027F2  3773               	rlcf	(___aodiv@quotient+1)& (0+255),f,b
  3205   0027F4  3774               	rlcf	(___aodiv@quotient+2)& (0+255),f,b
  3206   0027F6  3775               	rlcf	(___aodiv@quotient+3)& (0+255),f,b
  3207   0027F8  3776               	rlcf	(___aodiv@quotient+4)& (0+255),f,b
  3208   0027FA  3777               	rlcf	(___aodiv@quotient+5)& (0+255),f,b
  3209   0027FC  3778               	rlcf	(___aodiv@quotient+6)& (0+255),f,b
  3210   0027FE  3779               	rlcf	(___aodiv@quotient+7)& (0+255),f,b
  3211   002800                     
  3212                           ; BSR set to: 0
  3213   002800  5168               	movf	___aodiv@divisor& (0+255),w,b
  3214   002802  5D60               	subwf	___aodiv@dividend& (0+255),w,b
  3215   002804  5169               	movf	(___aodiv@divisor+1)& (0+255),w,b
  3216   002806  5961               	subwfb	(___aodiv@dividend+1)& (0+255),w,b
  3217   002808  516A               	movf	(___aodiv@divisor+2)& (0+255),w,b
  3218   00280A  5962               	subwfb	(___aodiv@dividend+2)& (0+255),w,b
  3219   00280C  516B               	movf	(___aodiv@divisor+3)& (0+255),w,b
  3220   00280E  5963               	subwfb	(___aodiv@dividend+3)& (0+255),w,b
  3221   002810  516C               	movf	(___aodiv@divisor+4)& (0+255),w,b
  3222   002812  5964               	subwfb	(___aodiv@dividend+4)& (0+255),w,b
  3223   002814  516D               	movf	(___aodiv@divisor+5)& (0+255),w,b
  3224   002816  5965               	subwfb	(___aodiv@dividend+5)& (0+255),w,b
  3225   002818  516E               	movf	(___aodiv@divisor+6)& (0+255),w,b
  3226   00281A  5966               	subwfb	(___aodiv@dividend+6)& (0+255),w,b
  3227   00281C  516F               	movf	(___aodiv@divisor+7)& (0+255),w,b
  3228   00281E  5967               	subwfb	(___aodiv@dividend+7)& (0+255),w,b
  3229   002820  A0D8               	btfss	status,0,c
  3230   002822  EF15  F014         	goto	u2131
  3231   002826  EF17  F014         	goto	u2130
  3232   00282A                     u2131:
  3233   00282A  EF28  F014         	goto	l2625
  3234   00282E                     u2130:
  3235   00282E                     
  3236                           ; BSR set to: 0
  3237   00282E  5168               	movf	___aodiv@divisor& (0+255),w,b
  3238   002830  5F60               	subwf	___aodiv@dividend& (0+255),f,b
  3239   002832  5169               	movf	(___aodiv@divisor+1)& (0+255),w,b
  3240   002834  5B61               	subwfb	(___aodiv@dividend+1)& (0+255),f,b
  3241   002836  516A               	movf	(___aodiv@divisor+2)& (0+255),w,b
  3242   002838  5B62               	subwfb	(___aodiv@dividend+2)& (0+255),f,b
  3243   00283A  516B               	movf	(___aodiv@divisor+3)& (0+255),w,b
  3244   00283C  5B63               	subwfb	(___aodiv@dividend+3)& (0+255),f,b
  3245   00283E  516C               	movf	(___aodiv@divisor+4)& (0+255),w,b
  3246   002840  5B64               	subwfb	(___aodiv@dividend+4)& (0+255),f,b
  3247   002842  516D               	movf	(___aodiv@divisor+5)& (0+255),w,b
  3248   002844  5B65               	subwfb	(___aodiv@dividend+5)& (0+255),f,b
  3249   002846  516E               	movf	(___aodiv@divisor+6)& (0+255),w,b
  3250   002848  5B66               	subwfb	(___aodiv@dividend+6)& (0+255),f,b
  3251   00284A  516F               	movf	(___aodiv@divisor+7)& (0+255),w,b
  3252   00284C  5B67               	subwfb	(___aodiv@dividend+7)& (0+255),f,b
  3253   00284E                     
  3254                           ; BSR set to: 0
  3255   00284E  8172               	bsf	___aodiv@quotient& (0+255),0,b
  3256   002850                     l2625:
  3257                           
  3258                           ; BSR set to: 0
  3259   002850  90D8               	bcf	status,0,c
  3260   002852  336F               	rrcf	(___aodiv@divisor+7)& (0+255),f,b
  3261   002854  336E               	rrcf	(___aodiv@divisor+6)& (0+255),f,b
  3262   002856  336D               	rrcf	(___aodiv@divisor+5)& (0+255),f,b
  3263   002858  336C               	rrcf	(___aodiv@divisor+4)& (0+255),f,b
  3264   00285A  336B               	rrcf	(___aodiv@divisor+3)& (0+255),f,b
  3265   00285C  336A               	rrcf	(___aodiv@divisor+2)& (0+255),f,b
  3266   00285E  3369               	rrcf	(___aodiv@divisor+1)& (0+255),f,b
  3267   002860  3368               	rrcf	___aodiv@divisor& (0+255),f,b
  3268   002862                     
  3269                           ; BSR set to: 0
  3270   002862  2F70               	decfsz	___aodiv@counter& (0+255),f,b
  3271   002864  EFF7  F013         	goto	l2617
  3272   002868                     l2629:
  3273                           
  3274                           ; BSR set to: 0
  3275   002868  5171               	movf	___aodiv@sign& (0+255),w,b
  3276   00286A  B4D8               	btfsc	status,2,c
  3277   00286C  EF3A  F014         	goto	u2141
  3278   002870  EF3C  F014         	goto	u2140
  3279   002874                     u2141:
  3280   002874  EF4C  F014         	goto	l2633
  3281   002878                     u2140:
  3282   002878                     
  3283                           ; BSR set to: 0
  3284   002878  1F79               	comf	(___aodiv@quotient+7)& (0+255),f,b
  3285   00287A  1F78               	comf	(___aodiv@quotient+6)& (0+255),f,b
  3286   00287C  1F77               	comf	(___aodiv@quotient+5)& (0+255),f,b
  3287   00287E  1F76               	comf	(___aodiv@quotient+4)& (0+255),f,b
  3288   002880  1F75               	comf	(___aodiv@quotient+3)& (0+255),f,b
  3289   002882  1F74               	comf	(___aodiv@quotient+2)& (0+255),f,b
  3290   002884  1F73               	comf	(___aodiv@quotient+1)& (0+255),f,b
  3291   002886  6D72               	negf	___aodiv@quotient& (0+255),b
  3292   002888  0E00               	movlw	0
  3293   00288A  2373               	addwfc	(___aodiv@quotient+1)& (0+255),f,b
  3294   00288C  2374               	addwfc	(___aodiv@quotient+2)& (0+255),f,b
  3295   00288E  2375               	addwfc	(___aodiv@quotient+3)& (0+255),f,b
  3296   002890  2376               	addwfc	(___aodiv@quotient+4)& (0+255),f,b
  3297   002892  2377               	addwfc	(___aodiv@quotient+5)& (0+255),f,b
  3298   002894  2378               	addwfc	(___aodiv@quotient+6)& (0+255),f,b
  3299   002896  2379               	addwfc	(___aodiv@quotient+7)& (0+255),f,b
  3300   002898                     l2633:
  3301                           
  3302                           ; BSR set to: 0
  3303   002898  C072  F060         	movff	___aodiv@quotient,?___aodiv
  3304   00289C  C073  F061         	movff	___aodiv@quotient+1,?___aodiv+1
  3305   0028A0  C074  F062         	movff	___aodiv@quotient+2,?___aodiv+2
  3306   0028A4  C075  F063         	movff	___aodiv@quotient+3,?___aodiv+3
  3307   0028A8  C076  F064         	movff	___aodiv@quotient+4,?___aodiv+4
  3308   0028AC  C077  F065         	movff	___aodiv@quotient+5,?___aodiv+5
  3309   0028B0  C078  F066         	movff	___aodiv@quotient+6,?___aodiv+6
  3310   0028B4  C079  F067         	movff	___aodiv@quotient+7,?___aodiv+7
  3311   0028B8                     
  3312                           ; BSR set to: 0
  3313   0028B8  0012               	return		;funcret
  3314   0028BA                     __end_of___aodiv:
  3315                           	callstack 0
  3316                           
  3317 ;; *************** function _atoi *****************
  3318 ;; Defined at:
  3319 ;;		line 4 in file "C:\Program Files\Microchip\xc8\v2.40\pic\sources\c99\common\atoi.c"
  3320 ;; Parameters:    Size  Location     Type
  3321 ;;  s               2    6[BANK0 ] PTR const unsigned char 
  3322 ;;		 -> STR_2(16), STR_1(16), 
  3323 ;; Auto vars:     Size  Location     Type
  3324 ;;  n               2   13[BANK0 ] int 
  3325 ;;  neg             2   11[BANK0 ] int 
  3326 ;; Return value:  Size  Location     Type
  3327 ;;                  2    6[BANK0 ] int 
  3328 ;; Registers used:
  3329 ;;		wreg, status,2, status,0, tblptrl, tblptrh, tblptru, prodl, prodh, cstack
  3330 ;; Tracked objects:
  3331 ;;		On entry : 0/0
  3332 ;;		On exit  : 0/0
  3333 ;;		Unchanged: 0/0
  3334 ;; Data sizes:     COMRAM   BANK0   BANK1   BANK2   BANK3   BANK4   BANK5   BANK6   BANK7
  3335 ;;      Params:         0       2       0       0       0       0       0       0       0
  3336 ;;      Locals:         0       4       0       0       0       0       0       0       0
  3337 ;;      Temps:          0       3       0       0       0       0       0       0       0
  3338 ;;      Totals:         0       9       0       0       0       0       0       0       0
  3339 ;;Total ram usage:        9 bytes
  3340 ;; Hardware stack levels used: 1
  3341 ;; Hardware stack levels required when called: 3
  3342 ;; This function calls:
  3343 ;;		___wmul
  3344 ;;		_isdigit
  3345 ;;		_isspace
  3346 ;; This function is called by:
  3347 ;;		_vfpfcnvrt
  3348 ;; This function uses a non-reentrant model
  3349 ;;
  3350                           
  3351                           	psect	text14
  3352   002A20                     __ptext14:
  3353                           	callstack 0
  3354   002A20                     _atoi:
  3355                           	callstack 24
  3356   002A20  0E00               	movlw	0
  3357   002A22  0100               	movlb	0	; () banked
  3358   002A24  6F6E               	movwf	(atoi@n+1)& (0+255),b
  3359   002A26  0E00               	movlw	0
  3360   002A28  6F6D               	movwf	atoi@n& (0+255),b
  3361   002A2A  0E00               	movlw	0
  3362   002A2C  6F6C               	movwf	(atoi@neg+1)& (0+255),b
  3363   002A2E  0E00               	movlw	0
  3364   002A30  6F6B               	movwf	atoi@neg& (0+255),b
  3365   002A32  EF1D  F015         	goto	l2819
  3366   002A36                     l2815:
  3367                           
  3368                           ; BSR set to: 0
  3369   002A36  4B66               	infsnz	atoi@s& (0+255),f,b
  3370   002A38  2B67               	incf	(atoi@s+1)& (0+255),f,b
  3371   002A3A                     l2819:
  3372                           
  3373                           ; BSR set to: 0
  3374   002A3A  C066  FFF6         	movff	atoi@s,tblptrl
  3375   002A3E  C067  FFF7         	movff	atoi@s+1,tblptrh
  3376   002A42                     	if	0	;tblptru may be non-zero
  3377   002A42                     	endif
  3378   002A42                     	if	0	;tblptru may be non-zero
  3379   002A42                     	endif
  3380   002A42  0008               	tblrd		*
  3381   002A44  50F5               	movf	tablat,w,c
  3382   002A46  0A20               	xorlw	32
  3383   002A48  B4D8               	btfsc	status,2,c
  3384   002A4A  EF29  F015         	goto	u2461
  3385   002A4E  EF2B  F015         	goto	u2460
  3386   002A52                     u2461:
  3387   002A52  EF1B  F015         	goto	l2815
  3388   002A56                     u2460:
  3389   002A56                     
  3390                           ; BSR set to: 0
  3391   002A56  C066  FFF6         	movff	atoi@s,tblptrl
  3392   002A5A  C067  FFF7         	movff	atoi@s+1,tblptrh
  3393   002A5E                     	if	0	;tblptru may be non-zero
  3394   002A5E                     	endif
  3395   002A5E                     	if	0	;tblptru may be non-zero
  3396   002A5E                     	endif
  3397   002A5E  0008               	tblrd		*
  3398   002A60  CFF5 F068          	movff	tablat,??_atoi
  3399   002A64  0EF7               	movlw	247
  3400   002A66  2568               	addwf	??_atoi& (0+255),w,b
  3401   002A68  6F69               	movwf	(??_atoi+1)& (0+255),b
  3402   002A6A  6B6A               	clrf	(??_atoi+2)& (0+255),b
  3403   002A6C  0EFF               	movlw	255
  3404   002A6E  236A               	addwfc	(??_atoi+2)& (0+255),f,b
  3405   002A70  516A               	movf	(??_atoi+2)& (0+255),w,b
  3406   002A72  E109               	bnz	u2470
  3407   002A74  0E05               	movlw	5
  3408   002A76  5D69               	subwf	(??_atoi+1)& (0+255),w,b
  3409   002A78  A0D8               	btfss	status,0,c
  3410   002A7A  EF41  F015         	goto	u2471
  3411   002A7E  EF43  F015         	goto	u2470
  3412   002A82                     u2471:
  3413   002A82  EF1B  F015         	goto	l2815
  3414   002A86                     u2470:
  3415   002A86  EF4D  F015         	goto	l2827
  3416   002A8A                     l2823:
  3417                           
  3418                           ; BSR set to: 0
  3419   002A8A  0E00               	movlw	0
  3420   002A8C  6F6C               	movwf	(atoi@neg+1)& (0+255),b
  3421   002A8E  0E01               	movlw	1
  3422   002A90  6F6B               	movwf	atoi@neg& (0+255),b
  3423   002A92                     l2825:
  3424                           
  3425                           ; BSR set to: 0
  3426   002A92  4B66               	infsnz	atoi@s& (0+255),f,b
  3427   002A94  2B67               	incf	(atoi@s+1)& (0+255),f,b
  3428   002A96  EF83  F015         	goto	l2835
  3429   002A9A                     l2827:
  3430                           
  3431                           ; BSR set to: 0
  3432   002A9A  C066  FFF6         	movff	atoi@s,tblptrl
  3433   002A9E  C067  FFF7         	movff	atoi@s+1,tblptrh
  3434   002AA2                     	if	0	;tblptru may be non-zero
  3435   002AA2                     	endif
  3436   002AA2                     	if	0	;tblptru may be non-zero
  3437   002AA2                     	endif
  3438   002AA2  0008               	tblrd		*
  3439   002AA4  50F5               	movf	tablat,w,c
  3440   002AA6  6F68               	movwf	??_atoi& (0+255),b
  3441   002AA8  6B69               	clrf	(??_atoi+1)& (0+255),b
  3442                           
  3443                           ; Switch on 2 bytes has been partitioned into a top level switch of size 1, and 1 sub-sw
      +                          itches
  3444                           ; Switch size 1, requested type "simple"
  3445                           ; Number of cases is 1, Range of values is 0 to 0
  3446                           ; switch strategies available:
  3447                           ; Name         Instructions Cycles
  3448                           ; simple_byte            4     3 (average)
  3449                           ;	Chosen strategy is simple_byte
  3450   002AAA  5169               	movf	(??_atoi+1)& (0+255),w,b
  3451   002AAC  0A00               	xorlw	0	; case 0
  3452   002AAE  B4D8               	btfsc	status,2,c
  3453   002AB0  EF5C  F015         	goto	l4101
  3454   002AB4  EF83  F015         	goto	l2835
  3455   002AB8                     l4101:
  3456                           
  3457                           ; BSR set to: 0
  3458                           ; Switch size 1, requested type "simple"
  3459                           ; Number of cases is 2, Range of values is 43 to 45
  3460                           ; switch strategies available:
  3461                           ; Name         Instructions Cycles
  3462                           ; simple_byte            7     4 (average)
  3463                           ;	Chosen strategy is simple_byte
  3464   002AB8  5168               	movf	??_atoi& (0+255),w,b
  3465   002ABA  0A2B               	xorlw	43	; case 43
  3466   002ABC  B4D8               	btfsc	status,2,c
  3467   002ABE  EF49  F015         	goto	l2825
  3468   002AC2  0A06               	xorlw	6	; case 45
  3469   002AC4  B4D8               	btfsc	status,2,c
  3470   002AC6  EF45  F015         	goto	l2823
  3471   002ACA  EF83  F015         	goto	l2835
  3472   002ACE                     l2829:
  3473                           
  3474                           ; BSR set to: 0
  3475   002ACE  C06D  F060         	movff	atoi@n,___wmul@multiplier
  3476   002AD2  C06E  F061         	movff	atoi@n+1,___wmul@multiplier+1
  3477   002AD6  0E00               	movlw	0
  3478   002AD8  6F63               	movwf	(___wmul@multiplicand+1)& (0+255),b
  3479   002ADA  0E0A               	movlw	10
  3480   002ADC  6F62               	movwf	___wmul@multiplicand& (0+255),b
  3481   002ADE  ECBD  F01B         	call	___wmul	;wreg free
  3482   002AE2  C066  FFF6         	movff	atoi@s,tblptrl
  3483   002AE6  C067  FFF7         	movff	atoi@s+1,tblptrh
  3484   002AEA                     	if	0	;tblptru may be non-zero
  3485   002AEA                     	endif
  3486   002AEA                     	if	0	;tblptru may be non-zero
  3487   002AEA                     	endif
  3488   002AEA  0008               	tblrd		*
  3489   002AEC  50F5               	movf	tablat,w,c
  3490   002AEE  0100               	movlb	0	; () banked
  3491   002AF0  5F60               	subwf	?___wmul& (0+255),f,b
  3492   002AF2  0E00               	movlw	0
  3493   002AF4  5B61               	subwfb	(?___wmul+1)& (0+255),f,b
  3494   002AF6  0E30               	movlw	48
  3495   002AF8  2560               	addwf	?___wmul& (0+255),w,b
  3496   002AFA  6F6D               	movwf	atoi@n& (0+255),b
  3497   002AFC  0E00               	movlw	0
  3498   002AFE  2161               	addwfc	(?___wmul+1)& (0+255),w,b
  3499   002B00  6F6E               	movwf	(atoi@n+1)& (0+255),b
  3500   002B02  EF49  F015         	goto	l2825
  3501   002B06                     l2835:
  3502                           
  3503                           ; BSR set to: 0
  3504   002B06  C066  FFF6         	movff	atoi@s,tblptrl
  3505   002B0A  C067  FFF7         	movff	atoi@s+1,tblptrh
  3506   002B0E                     	if	0	;tblptru may be non-zero
  3507   002B0E                     	endif
  3508   002B0E                     	if	0	;tblptru may be non-zero
  3509   002B0E                     	endif
  3510   002B0E  0008               	tblrd		*
  3511   002B10  CFF5 F068          	movff	tablat,??_atoi
  3512   002B14  0ED0               	movlw	208
  3513   002B16  2568               	addwf	??_atoi& (0+255),w,b
  3514   002B18  6F69               	movwf	(??_atoi+1)& (0+255),b
  3515   002B1A  6B6A               	clrf	(??_atoi+2)& (0+255),b
  3516   002B1C  0EFF               	movlw	255
  3517   002B1E  236A               	addwfc	(??_atoi+2)& (0+255),f,b
  3518   002B20  516A               	movf	(??_atoi+2)& (0+255),w,b
  3519   002B22  E109               	bnz	u2480
  3520   002B24  0E0A               	movlw	10
  3521   002B26  5D69               	subwf	(??_atoi+1)& (0+255),w,b
  3522   002B28  A0D8               	btfss	status,0,c
  3523   002B2A  EF99  F015         	goto	u2481
  3524   002B2E  EF9B  F015         	goto	u2480
  3525   002B32                     u2481:
  3526   002B32  EF67  F015         	goto	l2829
  3527   002B36                     u2480:
  3528   002B36                     
  3529                           ; BSR set to: 0
  3530   002B36  516B               	movf	atoi@neg& (0+255),w,b
  3531   002B38  116C               	iorwf	(atoi@neg+1)& (0+255),w,b
  3532   002B3A  A4D8               	btfss	status,2,c
  3533   002B3C  EFA2  F015         	goto	u2491
  3534   002B40  EFA4  F015         	goto	u2490
  3535   002B44                     u2491:
  3536   002B44  EFB2  F015         	goto	l973
  3537   002B48                     u2490:
  3538   002B48                     
  3539                           ; BSR set to: 0
  3540   002B48  C06D  F068         	movff	atoi@n,??_atoi
  3541   002B4C  C06E  F069         	movff	atoi@n+1,??_atoi+1
  3542   002B50  1F68               	comf	??_atoi& (0+255),f,b
  3543   002B52  1F69               	comf	(??_atoi+1)& (0+255),f,b
  3544   002B54  4B68               	infsnz	??_atoi& (0+255),f,b
  3545   002B56  2B69               	incf	(??_atoi+1)& (0+255),f,b
  3546   002B58  C068  F066         	movff	??_atoi,?_atoi
  3547   002B5C  C069  F067         	movff	??_atoi+1,?_atoi+1
  3548   002B60  EFB6  F015         	goto	l976
  3549   002B64                     l973:
  3550                           
  3551                           ; BSR set to: 0
  3552   002B64  C06D  F066         	movff	atoi@n,?_atoi
  3553   002B68  C06E  F067         	movff	atoi@n+1,?_atoi+1
  3554   002B6C                     l976:
  3555                           
  3556                           ; BSR set to: 0
  3557   002B6C  0012               	return		;funcret
  3558   002B6E                     __end_of_atoi:
  3559                           	callstack 0
  3560                           
  3561 ;; *************** function _isspace *****************
  3562 ;; Defined at:
  3563 ;;		line 5 in file "C:\Program Files\Microchip\xc8\v2.40\pic\sources\c99\common\isspace.c"
  3564 ;; Parameters:    Size  Location     Type
  3565 ;;  c               2    0[BANK0 ] int 
  3566 ;; Auto vars:     Size  Location     Type
  3567 ;;		None
  3568 ;; Return value:  Size  Location     Type
  3569 ;;                  2    0[BANK0 ] int 
  3570 ;; Registers used:
  3571 ;;		wreg, status,2, status,0
  3572 ;; Tracked objects:
  3573 ;;		On entry : 0/0
  3574 ;;		On exit  : 0/0
  3575 ;;		Unchanged: 0/0
  3576 ;; Data sizes:     COMRAM   BANK0   BANK1   BANK2   BANK3   BANK4   BANK5   BANK6   BANK7
  3577 ;;      Params:         0       2       0       0       0       0       0       0       0
  3578 ;;      Locals:         0       1       0       0       0       0       0       0       0
  3579 ;;      Temps:          0       2       0       0       0       0       0       0       0
  3580 ;;      Totals:         0       5       0       0       0       0       0       0       0
  3581 ;;Total ram usage:        5 bytes
  3582 ;; Hardware stack levels used: 1
  3583 ;; Hardware stack levels required when called: 2
  3584 ;; This function calls:
  3585 ;;		Nothing
  3586 ;; This function is called by:
  3587 ;;		_atoi
  3588 ;; This function uses a non-reentrant model
  3589 ;;
  3590                           
  3591                           	psect	text15
  3592   00367A                     __ptext15:
  3593                           	callstack 0
  3594   00367A                     _isspace:
  3595                           	callstack 24
  3596   00367A  0E01               	movlw	1
  3597   00367C  0100               	movlb	0	; () banked
  3598   00367E  6F64               	movwf	_isspace$1104& (0+255),b
  3599   003680                     
  3600                           ; BSR set to: 0
  3601   003680  0E20               	movlw	32
  3602   003682  1960               	xorwf	isspace@c& (0+255),w,b
  3603   003684  1161               	iorwf	(isspace@c+1)& (0+255),w,b
  3604   003686  B4D8               	btfsc	status,2,c
  3605   003688  EF48  F01B         	goto	u2281
  3606   00368C  EF4A  F01B         	goto	u2280
  3607   003690                     u2281:
  3608   003690  EF5D  F01B         	goto	l2707
  3609   003694                     u2280:
  3610   003694                     
  3611                           ; BSR set to: 0
  3612   003694  0EF7               	movlw	247
  3613   003696  2560               	addwf	isspace@c& (0+255),w,b
  3614   003698  6F62               	movwf	??_isspace& (0+255),b
  3615   00369A  0EFF               	movlw	255
  3616   00369C  2161               	addwfc	(isspace@c+1)& (0+255),w,b
  3617   00369E  6F63               	movwf	(??_isspace+1)& (0+255),b
  3618   0036A0  5163               	movf	(??_isspace+1)& (0+255),w,b
  3619   0036A2  E109               	bnz	u2290
  3620   0036A4  0E05               	movlw	5
  3621   0036A6  5D62               	subwf	??_isspace& (0+255),w,b
  3622   0036A8  A0D8               	btfss	status,0,c
  3623   0036AA  EF59  F01B         	goto	u2291
  3624   0036AE  EF5B  F01B         	goto	u2290
  3625   0036B2                     u2291:
  3626   0036B2  EF5D  F01B         	goto	l2707
  3627   0036B6                     u2290:
  3628   0036B6                     
  3629                           ; BSR set to: 0
  3630   0036B6  0E00               	movlw	0
  3631   0036B8  6F64               	movwf	_isspace$1104& (0+255),b
  3632   0036BA                     l2707:
  3633                           
  3634                           ; BSR set to: 0
  3635   0036BA  C064  F060         	movff	_isspace$1104,?_isspace
  3636   0036BE  6B61               	clrf	(?_isspace+1)& (0+255),b
  3637   0036C0                     
  3638                           ; BSR set to: 0
  3639   0036C0  0012               	return		;funcret
  3640   0036C2                     __end_of_isspace:
  3641                           	callstack 0
  3642                           
  3643 ;; *************** function _isdigit *****************
  3644 ;; Defined at:
  3645 ;;		line 5 in file "C:\Program Files\Microchip\xc8\v2.40\pic\sources\c99\common\isdigit.c"
  3646 ;; Parameters:    Size  Location     Type
  3647 ;;  c               2    0[BANK0 ] int 
  3648 ;; Auto vars:     Size  Location     Type
  3649 ;;		None
  3650 ;; Return value:  Size  Location     Type
  3651 ;;                  2    0[BANK0 ] int 
  3652 ;; Registers used:
  3653 ;;		wreg, status,2, status,0
  3654 ;; Tracked objects:
  3655 ;;		On entry : 0/0
  3656 ;;		On exit  : 0/0
  3657 ;;		Unchanged: 0/0
  3658 ;; Data sizes:     COMRAM   BANK0   BANK1   BANK2   BANK3   BANK4   BANK5   BANK6   BANK7
  3659 ;;      Params:         0       2       0       0       0       0       0       0       0
  3660 ;;      Locals:         0       0       0       0       0       0       0       0       0
  3661 ;;      Temps:          0       2       0       0       0       0       0       0       0
  3662 ;;      Totals:         0       4       0       0       0       0       0       0       0
  3663 ;;Total ram usage:        4 bytes
  3664 ;; Hardware stack levels used: 1
  3665 ;; Hardware stack levels required when called: 2
  3666 ;; This function calls:
  3667 ;;		Nothing
  3668 ;; This function is called by:
  3669 ;;		_vfpfcnvrt
  3670 ;;		_atoi
  3671 ;; This function uses a non-reentrant model
  3672 ;;
  3673                           
  3674                           	psect	text16
  3675   00374C                     __ptext16:
  3676                           	callstack 0
  3677   00374C                     _isdigit:
  3678                           	callstack 25
  3679   00374C  0ED0               	movlw	208
  3680   00374E  0100               	movlb	0	; () banked
  3681   003750  2560               	addwf	isdigit@c& (0+255),w,b
  3682   003752  6F62               	movwf	??_isdigit& (0+255),b
  3683   003754  0EFF               	movlw	255
  3684   003756  2161               	addwfc	(isdigit@c+1)& (0+255),w,b
  3685   003758  6F63               	movwf	(??_isdigit+1)& (0+255),b
  3686   00375A  5163               	movf	(??_isdigit+1)& (0+255),w,b
  3687   00375C  E10A               	bnz	u2260
  3688   00375E  0E0A               	movlw	10
  3689   003760  5D62               	subwf	??_isdigit& (0+255),w,b
  3690   003762  A0D8               	btfss	status,0,c
  3691   003764  EFB6  F01B         	goto	u2261
  3692   003768  EFB9  F01B         	goto	u2260
  3693   00376C                     u2261:
  3694   00376C  0E01               	movlw	1
  3695   00376E  EFBA  F01B         	goto	u2270
  3696   003772                     u2260:
  3697   003772  0E00               	movlw	0
  3698   003774                     u2270:
  3699   003774  6F60               	movwf	?_isdigit& (0+255),b
  3700   003776  6B61               	clrf	(?_isdigit+1)& (0+255),b
  3701   003778                     
  3702                           ; BSR set to: 0
  3703   003778  0012               	return		;funcret
  3704   00377A                     __end_of_isdigit:
  3705                           	callstack 0
  3706                           
  3707 ;; *************** function ___wmul *****************
  3708 ;; Defined at:
  3709 ;;		line 15 in file "C:\Program Files\Microchip\xc8\v2.40\pic\sources\c99\common\Umul16.c"
  3710 ;; Parameters:    Size  Location     Type
  3711 ;;  multiplier      2    0[BANK0 ] unsigned int 
  3712 ;;  multiplicand    2    2[BANK0 ] unsigned int 
  3713 ;; Auto vars:     Size  Location     Type
  3714 ;;  product         2    4[BANK0 ] unsigned int 
  3715 ;; Return value:  Size  Location     Type
  3716 ;;                  2    0[BANK0 ] unsigned int 
  3717 ;; Registers used:
  3718 ;;		wreg, status,2, status,0, prodl, prodh
  3719 ;; Tracked objects:
  3720 ;;		On entry : 0/0
  3721 ;;		On exit  : 0/0
  3722 ;;		Unchanged: 0/0
  3723 ;; Data sizes:     COMRAM   BANK0   BANK1   BANK2   BANK3   BANK4   BANK5   BANK6   BANK7
  3724 ;;      Params:         0       4       0       0       0       0       0       0       0
  3725 ;;      Locals:         0       2       0       0       0       0       0       0       0
  3726 ;;      Temps:          0       0       0       0       0       0       0       0       0
  3727 ;;      Totals:         0       6       0       0       0       0       0       0       0
  3728 ;;Total ram usage:        6 bytes
  3729 ;; Hardware stack levels used: 1
  3730 ;; Hardware stack levels required when called: 2
  3731 ;; This function calls:
  3732 ;;		Nothing
  3733 ;; This function is called by:
  3734 ;;		_atoi
  3735 ;; This function uses a non-reentrant model
  3736 ;;
  3737                           
  3738                           	psect	text17
  3739   00377A                     __ptext17:
  3740                           	callstack 0
  3741   00377A                     ___wmul:
  3742                           	callstack 24
  3743   00377A  0100               	movlb	0	; () banked
  3744   00377C  5160               	movf	___wmul@multiplier& (0+255),w,b
  3745   00377E  0362               	mulwf	___wmul@multiplicand& (0+255),b
  3746   003780  CFF3 F064          	movff	prodl,___wmul@product
  3747   003784  CFF4 F065          	movff	prodh,___wmul@product+1
  3748   003788  5160               	movf	___wmul@multiplier& (0+255),w,b
  3749   00378A  0363               	mulwf	(___wmul@multiplicand+1)& (0+255),b
  3750   00378C  50F3               	movf	243,w,c
  3751   00378E  2765               	addwf	(___wmul@product+1)& (0+255),f,b
  3752   003790  5161               	movf	(___wmul@multiplier+1)& (0+255),w,b
  3753   003792  0362               	mulwf	___wmul@multiplicand& (0+255),b
  3754   003794  50F3               	movf	243,w,c
  3755   003796  2765               	addwf	(___wmul@product+1)& (0+255),f,b
  3756   003798                     
  3757                           ; BSR set to: 0
  3758   003798  C064  F060         	movff	___wmul@product,?___wmul
  3759   00379C  C065  F061         	movff	___wmul@product+1,?___wmul+1
  3760   0037A0                     
  3761                           ; BSR set to: 0
  3762   0037A0  0012               	return		;funcret
  3763   0037A2                     __end_of___wmul:
  3764                           	callstack 0
  3765                           
  3766 ;; *************** function _pid *****************
  3767 ;; Defined at:
  3768 ;;		line 140 in file "main.c"
  3769 ;; Parameters:    Size  Location     Type
  3770 ;;  velocidad       2   88[BANK0 ] int 
  3771 ;; Auto vars:     Size  Location     Type
  3772 ;;  Tm              4  114[BANK0 ] float 
  3773 ;; Return value:  Size  Location     Type
  3774 ;;                  4   88[BANK0 ] float 
  3775 ;; Registers used:
  3776 ;;		wreg, status,2, status,0, prodl, prodh, cstack
  3777 ;; Tracked objects:
  3778 ;;		On entry : 0/0
  3779 ;;		On exit  : 0/0
  3780 ;;		Unchanged: 0/0
  3781 ;; Data sizes:     COMRAM   BANK0   BANK1   BANK2   BANK3   BANK4   BANK5   BANK6   BANK7
  3782 ;;      Params:         0       4       0       0       0       0       0       0       0
  3783 ;;      Locals:         0      24       0       0       0       0       0       0       0
  3784 ;;      Temps:          0       2       0       0       0       0       0       0       0
  3785 ;;      Totals:         0      30       0       0       0       0       0       0       0
  3786 ;;Total ram usage:       30 bytes
  3787 ;; Hardware stack levels used: 1
  3788 ;; Hardware stack levels required when called: 4
  3789 ;; This function calls:
  3790 ;;		___fladd
  3791 ;;		___fldiv
  3792 ;;		___flge
  3793 ;;		___flmul
  3794 ;;		___flsub
  3795 ;;		___xxtofl
  3796 ;; This function is called by:
  3797 ;;		_main
  3798 ;; This function uses a non-reentrant model
  3799 ;;
  3800                           
  3801                           	psect	text18
  3802   001900                     __ptext18:
  3803                           	callstack 0
  3804   001900                     _pid:
  3805                           	callstack 26
  3806   001900                     
  3807                           ;main.c: 142:     float Tm = 0.01;
  3808   001900  0E0A               	movlw	10
  3809   001902  0100               	movlb	0	; () banked
  3810   001904  6FD2               	movwf	pid@Tm& (0+255),b
  3811   001906  0ED7               	movlw	215
  3812   001908  6FD3               	movwf	(pid@Tm+1)& (0+255),b
  3813   00190A  0E23               	movlw	35
  3814   00190C  6FD4               	movwf	(pid@Tm+2)& (0+255),b
  3815   00190E  0E3C               	movlw	60
  3816   001910  6FD5               	movwf	(pid@Tm+3)& (0+255),b
  3817   001912                     
  3818                           ; BSR set to: 0
  3819                           ;main.c: 143:     error = setpoint_rpm - velocidad;
  3820   001912  0E90               	movlw	144
  3821   001914  6FBC               	movwf	??_pid& (0+255),b
  3822   001916  0E01               	movlw	1
  3823   001918  6FBD               	movwf	(??_pid+1)& (0+255),b
  3824   00191A  51B8               	movf	pid@velocidad& (0+255),w,b
  3825   00191C  5FBC               	subwf	??_pid& (0+255),f,b
  3826   00191E  51B9               	movf	(pid@velocidad+1)& (0+255),w,b
  3827   001920  5BBD               	subwfb	(??_pid+1)& (0+255),f,b
  3828   001922  C0BC  F060         	movff	??_pid,___xxtofl@val
  3829   001926  C0BD  F061         	movff	??_pid+1,___xxtofl@val+1
  3830   00192A  0E00               	movlw	0
  3831   00192C  BF61               	btfsc	(___xxtofl@val+1)& (0+255),7,b
  3832   00192E  0EFF               	movlw	-1
  3833   001930  6F62               	movwf	(___xxtofl@val+2)& (0+255),b
  3834   001932  6F63               	movwf	(___xxtofl@val+3)& (0+255),b
  3835   001934  0E01               	movlw	1
  3836   001936  ECE2  F011         	call	___xxtofl
  3837   00193A  C060  F0DE         	movff	?___xxtofl,_error
  3838   00193E  C061  F0DF         	movff	?___xxtofl+1,_error+1
  3839   001942  C062  F0E0         	movff	?___xxtofl+2,_error+2
  3840   001946  C063  F0E1         	movff	?___xxtofl+3,_error+3
  3841   00194A                     
  3842                           ;main.c: 144:     cv = cv1 + (kp + kd / Tm) * error + (-kp + ki * Tm - 2 * kd / Tm) * er
      +                          ror1 + (kd / Tm) * error2;
  3843   00194A  0E00               	movlw	0
  3844   00194C  0100               	movlb	0	; () banked
  3845   00194E  6FA4               	movwf	___fladd@a& (0+255),b
  3846   001950  0E00               	movlw	0
  3847   001952  6FA5               	movwf	(___fladd@a+1)& (0+255),b
  3848   001954  0E80               	movlw	128
  3849   001956  6FA6               	movwf	(___fladd@a+2)& (0+255),b
  3850   001958  0EBF               	movlw	191
  3851   00195A  6FA7               	movwf	(___fladd@a+3)& (0+255),b
  3852   00195C  0ECD               	movlw	205
  3853   00195E  6F8B               	movwf	___flmul@a& (0+255),b
  3854   001960  0ECC               	movlw	204
  3855   001962  6F8C               	movwf	(___flmul@a+1)& (0+255),b
  3856   001964  0E4C               	movlw	76
  3857   001966  6F8D               	movwf	(___flmul@a+2)& (0+255),b
  3858   001968  0E3E               	movlw	62
  3859   00196A  6F8E               	movwf	(___flmul@a+3)& (0+255),b
  3860   00196C  C0D2  F087         	movff	pid@Tm,___flmul@b
  3861   001970  C0D3  F088         	movff	pid@Tm+1,___flmul@b+1
  3862   001974  C0D4  F089         	movff	pid@Tm+2,___flmul@b+2
  3863   001978  C0D5  F08A         	movff	pid@Tm+3,___flmul@b+3
  3864   00197C  EC87  F006         	call	___flmul	;wreg free
  3865   001980  C087  F0A0         	movff	?___flmul,___fladd@b
  3866   001984  C088  F0A1         	movff	?___flmul+1,___fladd@b+1
  3867   001988  C089  F0A2         	movff	?___flmul+2,___fladd@b+2
  3868   00198C  C08A  F0A3         	movff	?___flmul+3,___fladd@b+3
  3869   001990  EC26  F004         	call	___fladd	;wreg free
  3870   001994  C0A0  F0BE         	movff	?___fladd,_pid$1415
  3871   001998  C0A1  F0BF         	movff	?___fladd+1,_pid$1415+1
  3872   00199C  C0A2  F0C0         	movff	?___fladd+2,_pid$1415+2
  3873   0019A0  C0A3  F0C1         	movff	?___fladd+3,_pid$1415+3
  3874   0019A4                     
  3875                           ;main.c: 144:     cv = cv1 + (kp + kd / Tm) * error + (-kp + ki * Tm - 2 * kd / Tm) * er
      +                          ror1 + (kd / Tm) * error2;
  3876   0019A4  C0DE  F08B         	movff	_error,___flmul@a
  3877   0019A8  C0DF  F08C         	movff	_error+1,___flmul@a+1
  3878   0019AC  C0E0  F08D         	movff	_error+2,___flmul@a+2
  3879   0019B0  C0E1  F08E         	movff	_error+3,___flmul@a+3
  3880   0019B4  0E00               	movlw	0
  3881   0019B6  0100               	movlb	0	; () banked
  3882   0019B8  6FA4               	movwf	___fladd@a& (0+255),b
  3883   0019BA  0E00               	movlw	0
  3884   0019BC  6FA5               	movwf	(___fladd@a+1)& (0+255),b
  3885   0019BE  0E80               	movlw	128
  3886   0019C0  6FA6               	movwf	(___fladd@a+2)& (0+255),b
  3887   0019C2  0E3F               	movlw	63
  3888   0019C4  6FA7               	movwf	(___fladd@a+3)& (0+255),b
  3889   0019C6  C0D2  F072         	movff	pid@Tm,___fldiv@a
  3890   0019CA  C0D3  F073         	movff	pid@Tm+1,___fldiv@a+1
  3891   0019CE  C0D4  F074         	movff	pid@Tm+2,___fldiv@a+2
  3892   0019D2  C0D5  F075         	movff	pid@Tm+3,___fldiv@a+3
  3893   0019D6  0E6F               	movlw	111
  3894   0019D8  6F6E               	movwf	___fldiv@b& (0+255),b
  3895   0019DA  0E12               	movlw	18
  3896   0019DC  6F6F               	movwf	(___fldiv@b+1)& (0+255),b
  3897   0019DE  0E83               	movlw	131
  3898   0019E0  6F70               	movwf	(___fldiv@b+2)& (0+255),b
  3899   0019E2  0E3A               	movlw	58
  3900   0019E4  6F71               	movwf	(___fldiv@b+3)& (0+255),b
  3901   0019E6  ECB2  F00A         	call	___fldiv	;wreg free
  3902   0019EA  C06E  F0A0         	movff	?___fldiv,___fladd@b
  3903   0019EE  C06F  F0A1         	movff	?___fldiv+1,___fladd@b+1
  3904   0019F2  C070  F0A2         	movff	?___fldiv+2,___fladd@b+2
  3905   0019F6  C071  F0A3         	movff	?___fldiv+3,___fladd@b+3
  3906   0019FA  EC26  F004         	call	___fladd	;wreg free
  3907   0019FE  C0A0  F087         	movff	?___fladd,___flmul@b
  3908   001A02  C0A1  F088         	movff	?___fladd+1,___flmul@b+1
  3909   001A06  C0A2  F089         	movff	?___fladd+2,___flmul@b+2
  3910   001A0A  C0A3  F08A         	movff	?___fladd+3,___flmul@b+3
  3911   001A0E  EC87  F006         	call	___flmul	;wreg free
  3912   001A12  C087  F0C2         	movff	?___flmul,_pid$1416
  3913   001A16  C088  F0C3         	movff	?___flmul+1,_pid$1416+1
  3914   001A1A  C089  F0C4         	movff	?___flmul+2,_pid$1416+2
  3915   001A1E  C08A  F0C5         	movff	?___flmul+3,_pid$1416+3
  3916   001A22                     
  3917                           ;main.c: 144:     cv = cv1 + (kp + kd / Tm) * error + (-kp + ki * Tm - 2 * kd / Tm) * er
      +                          ror1 + (kd / Tm) * error2;
  3918   001A22  C0DA  F08B         	movff	_error1,___flmul@a
  3919   001A26  C0DB  F08C         	movff	_error1+1,___flmul@a+1
  3920   001A2A  C0DC  F08D         	movff	_error1+2,___flmul@a+2
  3921   001A2E  C0DD  F08E         	movff	_error1+3,___flmul@a+3
  3922   001A32  C0D2  F072         	movff	pid@Tm,___fldiv@a
  3923   001A36  C0D3  F073         	movff	pid@Tm+1,___fldiv@a+1
  3924   001A3A  C0D4  F074         	movff	pid@Tm+2,___fldiv@a+2
  3925   001A3E  C0D5  F075         	movff	pid@Tm+3,___fldiv@a+3
  3926   001A42  0E6F               	movlw	111
  3927   001A44  0100               	movlb	0	; () banked
  3928   001A46  6F6E               	movwf	___fldiv@b& (0+255),b
  3929   001A48  0E12               	movlw	18
  3930   001A4A  6F6F               	movwf	(___fldiv@b+1)& (0+255),b
  3931   001A4C  0E03               	movlw	3
  3932   001A4E  6F70               	movwf	(___fldiv@b+2)& (0+255),b
  3933   001A50  0E3B               	movlw	59
  3934   001A52  6F71               	movwf	(___fldiv@b+3)& (0+255),b
  3935   001A54  ECB2  F00A         	call	___fldiv	;wreg free
  3936   001A58  C06E  F0B4         	movff	?___fldiv,___flsub@a
  3937   001A5C  C06F  F0B5         	movff	?___fldiv+1,___flsub@a+1
  3938   001A60  C070  F0B6         	movff	?___fldiv+2,___flsub@a+2
  3939   001A64  C071  F0B7         	movff	?___fldiv+3,___flsub@a+3
  3940   001A68  C0BE  F0B0         	movff	_pid$1415,___flsub@b
  3941   001A6C  C0BF  F0B1         	movff	_pid$1415+1,___flsub@b+1
  3942   001A70  C0C0  F0B2         	movff	_pid$1415+2,___flsub@b+2
  3943   001A74  C0C1  F0B3         	movff	_pid$1415+3,___flsub@b+3
  3944   001A78  EC61  F01B         	call	___flsub	;wreg free
  3945   001A7C  C0B0  F087         	movff	?___flsub,___flmul@b
  3946   001A80  C0B1  F088         	movff	?___flsub+1,___flmul@b+1
  3947   001A84  C0B2  F089         	movff	?___flsub+2,___flmul@b+2
  3948   001A88  C0B3  F08A         	movff	?___flsub+3,___flmul@b+3
  3949   001A8C  EC87  F006         	call	___flmul	;wreg free
  3950   001A90  C087  F0C6         	movff	?___flmul,_pid$1417
  3951   001A94  C088  F0C7         	movff	?___flmul+1,_pid$1417+1
  3952   001A98  C089  F0C8         	movff	?___flmul+2,_pid$1417+2
  3953   001A9C  C08A  F0C9         	movff	?___flmul+3,_pid$1417+3
  3954   001AA0                     
  3955                           ;main.c: 144:     cv = cv1 + (kp + kd / Tm) * error + (-kp + ki * Tm - 2 * kd / Tm) * er
      +                          ror1 + (kd / Tm) * error2;
  3956   001AA0  C0E2  F0A4         	movff	_cv1,___fladd@a
  3957   001AA4  C0E3  F0A5         	movff	_cv1+1,___fladd@a+1
  3958   001AA8  C0E4  F0A6         	movff	_cv1+2,___fladd@a+2
  3959   001AAC  C0E5  F0A7         	movff	_cv1+3,___fladd@a+3
  3960   001AB0  C0C2  F0A0         	movff	_pid$1416,___fladd@b
  3961   001AB4  C0C3  F0A1         	movff	_pid$1416+1,___fladd@b+1
  3962   001AB8  C0C4  F0A2         	movff	_pid$1416+2,___fladd@b+2
  3963   001ABC  C0C5  F0A3         	movff	_pid$1416+3,___fladd@b+3
  3964   001AC0  EC26  F004         	call	___fladd	;wreg free
  3965   001AC4  C0A0  F0CA         	movff	?___fladd,_pid$1354
  3966   001AC8  C0A1  F0CB         	movff	?___fladd+1,_pid$1354+1
  3967   001ACC  C0A2  F0CC         	movff	?___fladd+2,_pid$1354+2
  3968   001AD0  C0A3  F0CD         	movff	?___fladd+3,_pid$1354+3
  3969   001AD4                     
  3970                           ;main.c: 144:     cv = cv1 + (kp + kd / Tm) * error + (-kp + ki * Tm - 2 * kd / Tm) * er
      +                          ror1 + (kd / Tm) * error2;
  3971   001AD4  C0C6  F0A4         	movff	_pid$1417,___fladd@a
  3972   001AD8  C0C7  F0A5         	movff	_pid$1417+1,___fladd@a+1
  3973   001ADC  C0C8  F0A6         	movff	_pid$1417+2,___fladd@a+2
  3974   001AE0  C0C9  F0A7         	movff	_pid$1417+3,___fladd@a+3
  3975   001AE4  C0CA  F0A0         	movff	_pid$1354,___fladd@b
  3976   001AE8  C0CB  F0A1         	movff	_pid$1354+1,___fladd@b+1
  3977   001AEC  C0CC  F0A2         	movff	_pid$1354+2,___fladd@b+2
  3978   001AF0  C0CD  F0A3         	movff	_pid$1354+3,___fladd@b+3
  3979   001AF4  EC26  F004         	call	___fladd	;wreg free
  3980   001AF8  C0A0  F0CE         	movff	?___fladd,_pid$1355
  3981   001AFC  C0A1  F0CF         	movff	?___fladd+1,_pid$1355+1
  3982   001B00  C0A2  F0D0         	movff	?___fladd+2,_pid$1355+2
  3983   001B04  C0A3  F0D1         	movff	?___fladd+3,_pid$1355+3
  3984   001B08                     
  3985                           ;main.c: 144:     cv = cv1 + (kp + kd / Tm) * error + (-kp + ki * Tm - 2 * kd / Tm) * er
      +                          ror1 + (kd / Tm) * error2;
  3986   001B08  C0CE  F0A0         	movff	_pid$1355,___fladd@b
  3987   001B0C  C0CF  F0A1         	movff	_pid$1355+1,___fladd@b+1
  3988   001B10  C0D0  F0A2         	movff	_pid$1355+2,___fladd@b+2
  3989   001B14  C0D1  F0A3         	movff	_pid$1355+3,___fladd@b+3
  3990   001B18  C0D6  F08B         	movff	_error2,___flmul@a
  3991   001B1C  C0D7  F08C         	movff	_error2+1,___flmul@a+1
  3992   001B20  C0D8  F08D         	movff	_error2+2,___flmul@a+2
  3993   001B24  C0D9  F08E         	movff	_error2+3,___flmul@a+3
  3994   001B28  C0D2  F072         	movff	pid@Tm,___fldiv@a
  3995   001B2C  C0D3  F073         	movff	pid@Tm+1,___fldiv@a+1
  3996   001B30  C0D4  F074         	movff	pid@Tm+2,___fldiv@a+2
  3997   001B34  C0D5  F075         	movff	pid@Tm+3,___fldiv@a+3
  3998   001B38  0E6F               	movlw	111
  3999   001B3A  0100               	movlb	0	; () banked
  4000   001B3C  6F6E               	movwf	___fldiv@b& (0+255),b
  4001   001B3E  0E12               	movlw	18
  4002   001B40  6F6F               	movwf	(___fldiv@b+1)& (0+255),b
  4003   001B42  0E83               	movlw	131
  4004   001B44  6F70               	movwf	(___fldiv@b+2)& (0+255),b
  4005   001B46  0E3A               	movlw	58
  4006   001B48  6F71               	movwf	(___fldiv@b+3)& (0+255),b
  4007   001B4A  ECB2  F00A         	call	___fldiv	;wreg free
  4008   001B4E  C06E  F087         	movff	?___fldiv,___flmul@b
  4009   001B52  C06F  F088         	movff	?___fldiv+1,___flmul@b+1
  4010   001B56  C070  F089         	movff	?___fldiv+2,___flmul@b+2
  4011   001B5A  C071  F08A         	movff	?___fldiv+3,___flmul@b+3
  4012   001B5E  EC87  F006         	call	___flmul	;wreg free
  4013   001B62  C087  F0A4         	movff	?___flmul,___fladd@a
  4014   001B66  C088  F0A5         	movff	?___flmul+1,___fladd@a+1
  4015   001B6A  C089  F0A6         	movff	?___flmul+2,___fladd@a+2
  4016   001B6E  C08A  F0A7         	movff	?___flmul+3,___fladd@a+3
  4017   001B72  EC26  F004         	call	___fladd	;wreg free
  4018   001B76  C0A0  F0E6         	movff	?___fladd,_cv
  4019   001B7A  C0A1  F0E7         	movff	?___fladd+1,_cv+1
  4020   001B7E  C0A2  F0E8         	movff	?___fladd+2,_cv+2
  4021   001B82  C0A3  F0E9         	movff	?___fladd+3,_cv+3
  4022   001B86                     
  4023                           ;main.c: 145:     cv1 = cv;
  4024   001B86  C0E6  F0E2         	movff	_cv,_cv1
  4025   001B8A  C0E7  F0E3         	movff	_cv+1,_cv1+1
  4026   001B8E  C0E8  F0E4         	movff	_cv+2,_cv1+2
  4027   001B92  C0E9  F0E5         	movff	_cv+3,_cv1+3
  4028   001B96                     
  4029                           ;main.c: 146:     error2 = error1;
  4030   001B96  C0DA  F0D6         	movff	_error1,_error2
  4031   001B9A  C0DB  F0D7         	movff	_error1+1,_error2+1
  4032   001B9E  C0DC  F0D8         	movff	_error1+2,_error2+2
  4033   001BA2  C0DD  F0D9         	movff	_error1+3,_error2+3
  4034   001BA6                     
  4035                           ;main.c: 147:     error1 = error;
  4036   001BA6  C0DE  F0DA         	movff	_error,_error1
  4037   001BAA  C0DF  F0DB         	movff	_error+1,_error1+1
  4038   001BAE  C0E0  F0DC         	movff	_error+2,_error1+2
  4039   001BB2  C0E1  F0DD         	movff	_error+3,_error1+3
  4040   001BB6                     
  4041                           ;main.c: 149:     if (cv > 500) cv = 500;
  4042   001BB6  0E00               	movlw	0
  4043   001BB8  0100               	movlb	0	; () banked
  4044   001BBA  6F60               	movwf	___flge@ff1& (0+255),b
  4045   001BBC  0E00               	movlw	0
  4046   001BBE  6F61               	movwf	(___flge@ff1+1)& (0+255),b
  4047   001BC0  0EFA               	movlw	250
  4048   001BC2  6F62               	movwf	(___flge@ff1+2)& (0+255),b
  4049   001BC4  0E43               	movlw	67
  4050   001BC6  6F63               	movwf	(___flge@ff1+3)& (0+255),b
  4051   001BC8  C0E6  F064         	movff	_cv,___flge@ff2
  4052   001BCC  C0E7  F065         	movff	_cv+1,___flge@ff2+1
  4053   001BD0  C0E8  F066         	movff	_cv+2,___flge@ff2+2
  4054   001BD4  C0E9  F067         	movff	_cv+3,___flge@ff2+3
  4055   001BD8  ECD4  F016         	call	___flge	;wreg free
  4056   001BDC  0100               	movlb	0	; () banked
  4057   001BDE  B0D8               	btfsc	status,0,c
  4058   001BE0  EFF4  F00D         	goto	u3641
  4059   001BE4  EFF6  F00D         	goto	u3640
  4060   001BE8                     u3641:
  4061   001BE8  EFFE  F00D         	goto	l3681
  4062   001BEC                     u3640:
  4063   001BEC                     
  4064                           ; BSR set to: 0
  4065   001BEC  0E00               	movlw	0
  4066   001BEE  6FE6               	movwf	_cv& (0+255),b
  4067   001BF0  0E00               	movlw	0
  4068   001BF2  6FE7               	movwf	(_cv+1)& (0+255),b
  4069   001BF4  0EFA               	movlw	250
  4070   001BF6  6FE8               	movwf	(_cv+2)& (0+255),b
  4071   001BF8  0E43               	movlw	67
  4072   001BFA  6FE9               	movwf	(_cv+3)& (0+255),b
  4073   001BFC                     l3681:
  4074                           
  4075                           ; BSR set to: 0
  4076                           ;main.c: 150:     if (cv < 150) cv = 150;
  4077   001BFC  C0E6  F060         	movff	_cv,___flge@ff1
  4078   001C00  C0E7  F061         	movff	_cv+1,___flge@ff1+1
  4079   001C04  C0E8  F062         	movff	_cv+2,___flge@ff1+2
  4080   001C08  C0E9  F063         	movff	_cv+3,___flge@ff1+3
  4081   001C0C  0E00               	movlw	0
  4082   001C0E  6F64               	movwf	___flge@ff2& (0+255),b
  4083   001C10  0E00               	movlw	0
  4084   001C12  6F65               	movwf	(___flge@ff2+1)& (0+255),b
  4085   001C14  0E16               	movlw	22
  4086   001C16  6F66               	movwf	(___flge@ff2+2)& (0+255),b
  4087   001C18  0E43               	movlw	67
  4088   001C1A  6F67               	movwf	(___flge@ff2+3)& (0+255),b
  4089   001C1C  ECD4  F016         	call	___flge	;wreg free
  4090   001C20  0100               	movlb	0	; () banked
  4091   001C22  B0D8               	btfsc	status,0,c
  4092   001C24  EF16  F00E         	goto	u3651
  4093   001C28  EF18  F00E         	goto	u3650
  4094   001C2C                     u3651:
  4095   001C2C  EF20  F00E         	goto	l3685
  4096   001C30                     u3650:
  4097   001C30                     
  4098                           ; BSR set to: 0
  4099   001C30  0E00               	movlw	0
  4100   001C32  6FE6               	movwf	_cv& (0+255),b
  4101   001C34  0E00               	movlw	0
  4102   001C36  6FE7               	movwf	(_cv+1)& (0+255),b
  4103   001C38  0E16               	movlw	22
  4104   001C3A  6FE8               	movwf	(_cv+2)& (0+255),b
  4105   001C3C  0E43               	movlw	67
  4106   001C3E  6FE9               	movwf	(_cv+3)& (0+255),b
  4107   001C40                     l3685:
  4108                           
  4109                           ; BSR set to: 0
  4110                           ;main.c: 152:     return cv;
  4111   001C40  C0E6  F0B8         	movff	_cv,?_pid
  4112   001C44  C0E7  F0B9         	movff	_cv+1,?_pid+1
  4113   001C48  C0E8  F0BA         	movff	_cv+2,?_pid+2
  4114   001C4C  C0E9  F0BB         	movff	_cv+3,?_pid+3
  4115   001C50                     
  4116                           ; BSR set to: 0
  4117   001C50  0012               	return		;funcret
  4118   001C52                     __end_of_pid:
  4119                           	callstack 0
  4120                           
  4121 ;; *************** function ___flsub *****************
  4122 ;; Defined at:
  4123 ;;		line 245 in file "C:\Program Files\Microchip\xc8\v2.40\pic\sources\c99\common\sprcadd.c"
  4124 ;; Parameters:    Size  Location     Type
  4125 ;;  b               4   80[BANK0 ] float 
  4126 ;;  a               4   84[BANK0 ] float 
  4127 ;; Auto vars:     Size  Location     Type
  4128 ;;		None
  4129 ;; Return value:  Size  Location     Type
  4130 ;;                  4   80[BANK0 ] float 
  4131 ;; Registers used:
  4132 ;;		wreg, status,2, status,0, cstack
  4133 ;; Tracked objects:
  4134 ;;		On entry : 0/0
  4135 ;;		On exit  : 0/0
  4136 ;;		Unchanged: 0/0
  4137 ;; Data sizes:     COMRAM   BANK0   BANK1   BANK2   BANK3   BANK4   BANK5   BANK6   BANK7
  4138 ;;      Params:         0       8       0       0       0       0       0       0       0
  4139 ;;      Locals:         0       0       0       0       0       0       0       0       0
  4140 ;;      Temps:          0       0       0       0       0       0       0       0       0
  4141 ;;      Totals:         0       8       0       0       0       0       0       0       0
  4142 ;;Total ram usage:        8 bytes
  4143 ;; Hardware stack levels used: 1
  4144 ;; Hardware stack levels required when called: 3
  4145 ;; This function calls:
  4146 ;;		___fladd
  4147 ;; This function is called by:
  4148 ;;		_pid
  4149 ;; This function uses a non-reentrant model
  4150 ;;
  4151                           
  4152                           	psect	text19
  4153   0036C2                     __ptext19:
  4154                           	callstack 0
  4155   0036C2                     ___flsub:
  4156                           	callstack 26
  4157   0036C2  0E00               	movlw	0
  4158   0036C4  0100               	movlb	0	; () banked
  4159   0036C6  1BB4               	xorwf	___flsub@a& (0+255),f,b
  4160   0036C8  0E00               	movlw	0
  4161   0036CA  1BB5               	xorwf	(___flsub@a+1)& (0+255),f,b
  4162   0036CC  0E00               	movlw	0
  4163   0036CE  1BB6               	xorwf	(___flsub@a+2)& (0+255),f,b
  4164   0036D0  0E80               	movlw	128
  4165   0036D2  1BB7               	xorwf	(___flsub@a+3)& (0+255),f,b
  4166   0036D4                     
  4167                           ; BSR set to: 0
  4168   0036D4  C0B0  F0A0         	movff	___flsub@b,___fladd@b
  4169   0036D8  C0B1  F0A1         	movff	___flsub@b+1,___fladd@b+1
  4170   0036DC  C0B2  F0A2         	movff	___flsub@b+2,___fladd@b+2
  4171   0036E0  C0B3  F0A3         	movff	___flsub@b+3,___fladd@b+3
  4172   0036E4  C0B4  F0A4         	movff	___flsub@a,___fladd@a
  4173   0036E8  C0B5  F0A5         	movff	___flsub@a+1,___fladd@a+1
  4174   0036EC  C0B6  F0A6         	movff	___flsub@a+2,___fladd@a+2
  4175   0036F0  C0B7  F0A7         	movff	___flsub@a+3,___fladd@a+3
  4176   0036F4  EC26  F004         	call	___fladd	;wreg free
  4177   0036F8  C0A0  F0B0         	movff	?___fladd,?___flsub
  4178   0036FC  C0A1  F0B1         	movff	?___fladd+1,?___flsub+1
  4179   003700  C0A2  F0B2         	movff	?___fladd+2,?___flsub+2
  4180   003704  C0A3  F0B3         	movff	?___fladd+3,?___flsub+3
  4181   003708  0012               	return		;funcret
  4182   00370A                     __end_of___flsub:
  4183                           	callstack 0
  4184                           
  4185 ;; *************** function ___flge *****************
  4186 ;; Defined at:
  4187 ;;		line 4 in file "C:\Program Files\Microchip\xc8\v2.40\pic\sources\c99\common\flge.c"
  4188 ;; Parameters:    Size  Location     Type
  4189 ;;  ff1             4    0[BANK0 ] float 
  4190 ;;  ff2             4    4[BANK0 ] float 
  4191 ;; Auto vars:     Size  Location     Type
  4192 ;;		None
  4193 ;; Return value:  Size  Location     Type
  4194 ;;		None               void
  4195 ;; Registers used:
  4196 ;;		wreg, status,2, status,0
  4197 ;; Tracked objects:
  4198 ;;		On entry : 0/0
  4199 ;;		On exit  : 0/0
  4200 ;;		Unchanged: 0/0
  4201 ;; Data sizes:     COMRAM   BANK0   BANK1   BANK2   BANK3   BANK4   BANK5   BANK6   BANK7
  4202 ;;      Params:         0       8       0       0       0       0       0       0       0
  4203 ;;      Locals:         0       0       0       0       0       0       0       0       0
  4204 ;;      Temps:          0       4       0       0       0       0       0       0       0
  4205 ;;      Totals:         0      12       0       0       0       0       0       0       0
  4206 ;;Total ram usage:       12 bytes
  4207 ;; Hardware stack levels used: 1
  4208 ;; Hardware stack levels required when called: 2
  4209 ;; This function calls:
  4210 ;;		Nothing
  4211 ;; This function is called by:
  4212 ;;		_pid
  4213 ;; This function uses a non-reentrant model
  4214 ;;
  4215                           
  4216                           	psect	text20
  4217   002DA8                     __ptext20:
  4218                           	callstack 0
  4219   002DA8                     ___flge:
  4220                           	callstack 27
  4221   002DA8  0E00               	movlw	0
  4222   002DAA  0100               	movlb	0	; () banked
  4223   002DAC  1560               	andwf	___flge@ff1& (0+255),w,b
  4224   002DAE  6F68               	movwf	??___flge& (0+255),b
  4225   002DB0  0E00               	movlw	0
  4226   002DB2  1561               	andwf	(___flge@ff1+1)& (0+255),w,b
  4227   002DB4  6F69               	movwf	(??___flge+1)& (0+255),b
  4228   002DB6  0E80               	movlw	128
  4229   002DB8  1562               	andwf	(___flge@ff1+2)& (0+255),w,b
  4230   002DBA  6F6A               	movwf	(??___flge+2)& (0+255),b
  4231   002DBC  0E7F               	movlw	127
  4232   002DBE  1563               	andwf	(___flge@ff1+3)& (0+255),w,b
  4233   002DC0  6F6B               	movwf	(??___flge+3)& (0+255),b
  4234   002DC2  5168               	movf	??___flge& (0+255),w,b
  4235   002DC4  1169               	iorwf	(??___flge+1)& (0+255),w,b
  4236   002DC6  116A               	iorwf	(??___flge+2)& (0+255),w,b
  4237   002DC8  116B               	iorwf	(??___flge+3)& (0+255),w,b
  4238   002DCA  A4D8               	btfss	status,2,c
  4239   002DCC  EFEA  F016         	goto	u3381
  4240   002DD0  EFEC  F016         	goto	u3380
  4241   002DD4                     u3381:
  4242   002DD4  EFF4  F016         	goto	l3431
  4243   002DD8                     u3380:
  4244   002DD8                     
  4245                           ; BSR set to: 0
  4246   002DD8  0E00               	movlw	0
  4247   002DDA  6F60               	movwf	___flge@ff1& (0+255),b
  4248   002DDC  0E00               	movlw	0
  4249   002DDE  6F61               	movwf	(___flge@ff1+1)& (0+255),b
  4250   002DE0  0E00               	movlw	0
  4251   002DE2  6F62               	movwf	(___flge@ff1+2)& (0+255),b
  4252   002DE4  0E00               	movlw	0
  4253   002DE6  6F63               	movwf	(___flge@ff1+3)& (0+255),b
  4254   002DE8                     l3431:
  4255                           
  4256                           ; BSR set to: 0
  4257   002DE8  0E00               	movlw	0
  4258   002DEA  1564               	andwf	___flge@ff2& (0+255),w,b
  4259   002DEC  6F68               	movwf	??___flge& (0+255),b
  4260   002DEE  0E00               	movlw	0
  4261   002DF0  1565               	andwf	(___flge@ff2+1)& (0+255),w,b
  4262   002DF2  6F69               	movwf	(??___flge+1)& (0+255),b
  4263   002DF4  0E80               	movlw	128
  4264   002DF6  1566               	andwf	(___flge@ff2+2)& (0+255),w,b
  4265   002DF8  6F6A               	movwf	(??___flge+2)& (0+255),b
  4266   002DFA  0E7F               	movlw	127
  4267   002DFC  1567               	andwf	(___flge@ff2+3)& (0+255),w,b
  4268   002DFE  6F6B               	movwf	(??___flge+3)& (0+255),b
  4269   002E00  5168               	movf	??___flge& (0+255),w,b
  4270   002E02  1169               	iorwf	(??___flge+1)& (0+255),w,b
  4271   002E04  116A               	iorwf	(??___flge+2)& (0+255),w,b
  4272   002E06  116B               	iorwf	(??___flge+3)& (0+255),w,b
  4273   002E08  A4D8               	btfss	status,2,c
  4274   002E0A  EF09  F017         	goto	u3391
  4275   002E0E  EF0B  F017         	goto	u3390
  4276   002E12                     u3391:
  4277   002E12  EF13  F017         	goto	l3435
  4278   002E16                     u3390:
  4279   002E16                     
  4280                           ; BSR set to: 0
  4281   002E16  0E00               	movlw	0
  4282   002E18  6F64               	movwf	___flge@ff2& (0+255),b
  4283   002E1A  0E00               	movlw	0
  4284   002E1C  6F65               	movwf	(___flge@ff2+1)& (0+255),b
  4285   002E1E  0E00               	movlw	0
  4286   002E20  6F66               	movwf	(___flge@ff2+2)& (0+255),b
  4287   002E22  0E00               	movlw	0
  4288   002E24  6F67               	movwf	(___flge@ff2+3)& (0+255),b
  4289   002E26                     l3435:
  4290                           
  4291                           ; BSR set to: 0
  4292   002E26  AF63               	btfss	(___flge@ff1+3)& (0+255),7,b
  4293   002E28  EF18  F017         	goto	u3401
  4294   002E2C  EF1A  F017         	goto	u3400
  4295   002E30                     u3401:
  4296   002E30  EF23  F017         	goto	l3439
  4297   002E34                     u3400:
  4298   002E34                     
  4299                           ; BSR set to: 0
  4300   002E34  6D60               	negf	___flge@ff1& (0+255),b
  4301   002E36  1F61               	comf	(___flge@ff1+1)& (0+255),f,b
  4302   002E38  B0D8               	btfsc	status,0,c
  4303   002E3A  2B61               	incf	(___flge@ff1+1)& (0+255),f,b
  4304   002E3C  1F62               	comf	(___flge@ff1+2)& (0+255),f,b
  4305   002E3E  B0D8               	btfsc	status,0,c
  4306   002E40  2B62               	incf	(___flge@ff1+2)& (0+255),f,b
  4307   002E42  0E80               	movlw	128
  4308   002E44  5763               	subfwb	(___flge@ff1+3)& (0+255),f,b
  4309   002E46                     l3439:
  4310                           
  4311                           ; BSR set to: 0
  4312   002E46  AF67               	btfss	(___flge@ff2+3)& (0+255),7,b
  4313   002E48  EF28  F017         	goto	u3411
  4314   002E4C  EF2A  F017         	goto	u3410
  4315   002E50                     u3411:
  4316   002E50  EF33  F017         	goto	l449
  4317   002E54                     u3410:
  4318   002E54                     
  4319                           ; BSR set to: 0
  4320   002E54  6D64               	negf	___flge@ff2& (0+255),b
  4321   002E56  1F65               	comf	(___flge@ff2+1)& (0+255),f,b
  4322   002E58  B0D8               	btfsc	status,0,c
  4323   002E5A  2B65               	incf	(___flge@ff2+1)& (0+255),f,b
  4324   002E5C  1F66               	comf	(___flge@ff2+2)& (0+255),f,b
  4325   002E5E  B0D8               	btfsc	status,0,c
  4326   002E60  2B66               	incf	(___flge@ff2+2)& (0+255),f,b
  4327   002E62  0E80               	movlw	128
  4328   002E64  5767               	subfwb	(___flge@ff2+3)& (0+255),f,b
  4329   002E66                     l449:
  4330                           
  4331                           ; BSR set to: 0
  4332   002E66  0E00               	movlw	0
  4333   002E68  1B60               	xorwf	___flge@ff1& (0+255),f,b
  4334   002E6A  0E00               	movlw	0
  4335   002E6C  1B61               	xorwf	(___flge@ff1+1)& (0+255),f,b
  4336   002E6E  0E00               	movlw	0
  4337   002E70  1B62               	xorwf	(___flge@ff1+2)& (0+255),f,b
  4338   002E72  0E80               	movlw	128
  4339   002E74  1B63               	xorwf	(___flge@ff1+3)& (0+255),f,b
  4340   002E76  0E00               	movlw	0
  4341   002E78  1B64               	xorwf	___flge@ff2& (0+255),f,b
  4342   002E7A  0E00               	movlw	0
  4343   002E7C  1B65               	xorwf	(___flge@ff2+1)& (0+255),f,b
  4344   002E7E  0E00               	movlw	0
  4345   002E80  1B66               	xorwf	(___flge@ff2+2)& (0+255),f,b
  4346   002E82  0E80               	movlw	128
  4347   002E84  1B67               	xorwf	(___flge@ff2+3)& (0+255),f,b
  4348   002E86  5164               	movf	___flge@ff2& (0+255),w,b
  4349   002E88  5D60               	subwf	___flge@ff1& (0+255),w,b
  4350   002E8A  5165               	movf	(___flge@ff2+1)& (0+255),w,b
  4351   002E8C  5961               	subwfb	(___flge@ff1+1)& (0+255),w,b
  4352   002E8E  5166               	movf	(___flge@ff2+2)& (0+255),w,b
  4353   002E90  5962               	subwfb	(___flge@ff1+2)& (0+255),w,b
  4354   002E92  5167               	movf	(___flge@ff2+3)& (0+255),w,b
  4355   002E94  5963               	subwfb	(___flge@ff1+3)& (0+255),w,b
  4356   002E96  B0D8               	btfsc	status,0,c
  4357   002E98  EF50  F017         	goto	u3421
  4358   002E9C  EF52  F017         	goto	u3420
  4359   002EA0                     u3421:
  4360   002EA0  EF55  F017         	goto	l3445
  4361   002EA4                     u3420:
  4362   002EA4                     
  4363                           ; BSR set to: 0
  4364   002EA4  90D8               	bcf	status,0,c
  4365   002EA6  EF56  F017         	goto	l454
  4366   002EAA                     l3445:
  4367                           
  4368                           ; BSR set to: 0
  4369   002EAA  80D8               	bsf	status,0,c
  4370   002EAC                     l454:
  4371                           
  4372                           ; BSR set to: 0
  4373   002EAC  0012               	return		;funcret
  4374   002EAE                     __end_of___flge:
  4375                           	callstack 0
  4376                           
  4377 ;; *************** function _PWM_Start *****************
  4378 ;; Defined at:
  4379 ;;		line 5 in file "PWM_LIB.c"
  4380 ;; Parameters:    Size  Location     Type
  4381 ;;		None
  4382 ;; Auto vars:     Size  Location     Type
  4383 ;;		None
  4384 ;; Return value:  Size  Location     Type
  4385 ;;                  1    wreg      void 
  4386 ;; Registers used:
  4387 ;;		None
  4388 ;; Tracked objects:
  4389 ;;		On entry : 0/0
  4390 ;;		On exit  : 0/0
  4391 ;;		Unchanged: 0/0
  4392 ;; Data sizes:     COMRAM   BANK0   BANK1   BANK2   BANK3   BANK4   BANK5   BANK6   BANK7
  4393 ;;      Params:         0       0       0       0       0       0       0       0       0
  4394 ;;      Locals:         0       0       0       0       0       0       0       0       0
  4395 ;;      Temps:          0       0       0       0       0       0       0       0       0
  4396 ;;      Totals:         0       0       0       0       0       0       0       0       0
  4397 ;;Total ram usage:        0 bytes
  4398 ;; Hardware stack levels used: 1
  4399 ;; Hardware stack levels required when called: 2
  4400 ;; This function calls:
  4401 ;;		Nothing
  4402 ;; This function is called by:
  4403 ;;		_main
  4404 ;; This function uses a non-reentrant model
  4405 ;;
  4406                           
  4407                           	psect	text21
  4408   00382E                     __ptext21:
  4409                           	callstack 0
  4410   00382E                     _PWM_Start:
  4411                           	callstack 28
  4412   00382E                     
  4413                           ;PWM_LIB.c: 6:     T2CONbits.TMR2ON = 1;
  4414   00382E  84CA               	bsf	202,2,c	;volatile
  4415   003830  0012               	return		;funcret
  4416   003832                     __end_of_PWM_Start:
  4417                           	callstack 0
  4418                           
  4419 ;; *************** function _PWM_Init *****************
  4420 ;; Defined at:
  4421 ;;		line 13 in file "PWM_LIB.c"
  4422 ;; Parameters:    Size  Location     Type
  4423 ;;  f_trabajo       2   90[BANK0 ] int 
  4424 ;;  pre_config      1   92[BANK0 ] unsigned char 
  4425 ;; Auto vars:     Size  Location     Type
  4426 ;;  Tosc            4  103[BANK0 ] float 
  4427 ;;  Tpwm            4   99[BANK0 ] float 
  4428 ;;  press           1  107[BANK0 ] unsigned char 
  4429 ;; Return value:  Size  Location     Type
  4430 ;;                  1    wreg      void 
  4431 ;; Registers used:
  4432 ;;		wreg, status,2, status,0, prodl, prodh, cstack
  4433 ;; Tracked objects:
  4434 ;;		On entry : 0/0
  4435 ;;		On exit  : 0/0
  4436 ;;		Unchanged: 0/0
  4437 ;; Data sizes:     COMRAM   BANK0   BANK1   BANK2   BANK3   BANK4   BANK5   BANK6   BANK7
  4438 ;;      Params:         0       3       0       0       0       0       0       0       0
  4439 ;;      Locals:         0      13       0       0       0       0       0       0       0
  4440 ;;      Temps:          0       2       0       0       0       0       0       0       0
  4441 ;;      Totals:         0      18       0       0       0       0       0       0       0
  4442 ;;Total ram usage:       18 bytes
  4443 ;; Hardware stack levels used: 1
  4444 ;; Hardware stack levels required when called: 3
  4445 ;; This function calls:
  4446 ;;		___fladd
  4447 ;;		___fldiv
  4448 ;;		___flmul
  4449 ;;		___fltol
  4450 ;;		___xxtofl
  4451 ;; This function is called by:
  4452 ;;		_main
  4453 ;; This function uses a non-reentrant model
  4454 ;;
  4455                           
  4456                           	psect	text22
  4457   0021AC                     __ptext22:
  4458                           	callstack 0
  4459   0021AC                     _PWM_Init:
  4460                           	callstack 27
  4461   0021AC                     
  4462                           ;PWM_LIB.c: 14:     TRISCbits.TRISC2 = 0;
  4463   0021AC  9494               	bcf	148,2,c	;volatile
  4464   0021AE                     
  4465                           ;PWM_LIB.c: 15:     float Tpwm = (float)(1.0 / f_trabajo);
  4466   0021AE  0E00               	movlw	0
  4467   0021B0  0100               	movlb	0	; () banked
  4468   0021B2  6F6E               	movwf	___fldiv@b& (0+255),b
  4469   0021B4  0E00               	movlw	0
  4470   0021B6  6F6F               	movwf	(___fldiv@b+1)& (0+255),b
  4471   0021B8  0E80               	movlw	128
  4472   0021BA  6F70               	movwf	(___fldiv@b+2)& (0+255),b
  4473   0021BC  0E3F               	movlw	63
  4474   0021BE  6F71               	movwf	(___fldiv@b+3)& (0+255),b
  4475   0021C0  C0BA  F060         	movff	PWM_Init@f_trabajo,___xxtofl@val
  4476   0021C4  C0BB  F061         	movff	PWM_Init@f_trabajo+1,___xxtofl@val+1
  4477   0021C8  0E00               	movlw	0
  4478   0021CA  BF61               	btfsc	(___xxtofl@val+1)& (0+255),7,b
  4479   0021CC  0EFF               	movlw	-1
  4480   0021CE  6F62               	movwf	(___xxtofl@val+2)& (0+255),b
  4481   0021D0  6F63               	movwf	(___xxtofl@val+3)& (0+255),b
  4482   0021D2  0E01               	movlw	1
  4483   0021D4  ECE2  F011         	call	___xxtofl
  4484   0021D8  C060  F072         	movff	?___xxtofl,___fldiv@a
  4485   0021DC  C061  F073         	movff	?___xxtofl+1,___fldiv@a+1
  4486   0021E0  C062  F074         	movff	?___xxtofl+2,___fldiv@a+2
  4487   0021E4  C063  F075         	movff	?___xxtofl+3,___fldiv@a+3
  4488   0021E8  ECB2  F00A         	call	___fldiv	;wreg free
  4489   0021EC  C06E  F0C3         	movff	?___fldiv,PWM_Init@Tpwm
  4490   0021F0  C06F  F0C4         	movff	?___fldiv+1,PWM_Init@Tpwm+1
  4491   0021F4  C070  F0C5         	movff	?___fldiv+2,PWM_Init@Tpwm+2
  4492   0021F8  C071  F0C6         	movff	?___fldiv+3,PWM_Init@Tpwm+3
  4493   0021FC                     
  4494                           ;PWM_LIB.c: 16:     float Tosc = 1.0 / 4000000L;
  4495   0021FC  0EBD               	movlw	189
  4496   0021FE  0100               	movlb	0	; () banked
  4497   002200  6FC7               	movwf	PWM_Init@Tosc& (0+255),b
  4498   002202  0E37               	movlw	55
  4499   002204  6FC8               	movwf	(PWM_Init@Tosc+1)& (0+255),b
  4500   002206  0E86               	movlw	134
  4501   002208  6FC9               	movwf	(PWM_Init@Tosc+2)& (0+255),b
  4502   00220A  0E34               	movlw	52
  4503   00220C  6FCA               	movwf	(PWM_Init@Tosc+3)& (0+255),b
  4504   00220E                     
  4505                           ; BSR set to: 0
  4506                           ;PWM_LIB.c: 18:     char press = pre_config;
  4507   00220E  C0BC  F0CB         	movff	PWM_Init@pre_config,PWM_Init@press
  4508   002212                     
  4509                           ; BSR set to: 0
  4510                           ;PWM_LIB.c: 20:     PR2 = ((Tpwm / (Tosc * 4 * press)) - 1);
  4511   002212  0E00               	movlw	0
  4512   002214  6F8B               	movwf	___flmul@a& (0+255),b
  4513   002216  0E00               	movlw	0
  4514   002218  6F8C               	movwf	(___flmul@a+1)& (0+255),b
  4515   00221A  0E80               	movlw	128
  4516   00221C  6F8D               	movwf	(___flmul@a+2)& (0+255),b
  4517   00221E  0E40               	movlw	64
  4518   002220  6F8E               	movwf	(___flmul@a+3)& (0+255),b
  4519   002222  C0C7  F087         	movff	PWM_Init@Tosc,___flmul@b
  4520   002226  C0C8  F088         	movff	PWM_Init@Tosc+1,___flmul@b+1
  4521   00222A  C0C9  F089         	movff	PWM_Init@Tosc+2,___flmul@b+2
  4522   00222E  C0CA  F08A         	movff	PWM_Init@Tosc+3,___flmul@b+3
  4523   002232  EC87  F006         	call	___flmul	;wreg free
  4524   002236  C087  F0BF         	movff	?___flmul,_PWM_Init$1356
  4525   00223A  C088  F0C0         	movff	?___flmul+1,_PWM_Init$1356+1
  4526   00223E  C089  F0C1         	movff	?___flmul+2,_PWM_Init$1356+2
  4527   002242  C08A  F0C2         	movff	?___flmul+3,_PWM_Init$1356+3
  4528   002246                     
  4529                           ;PWM_LIB.c: 20:     PR2 = ((Tpwm / (Tosc * 4 * press)) - 1);
  4530   002246  0E00               	movlw	0
  4531   002248  0100               	movlb	0	; () banked
  4532   00224A  6FA4               	movwf	___fladd@a& (0+255),b
  4533   00224C  0E00               	movlw	0
  4534   00224E  6FA5               	movwf	(___fladd@a+1)& (0+255),b
  4535   002250  0E80               	movlw	128
  4536   002252  6FA6               	movwf	(___fladd@a+2)& (0+255),b
  4537   002254  0EBF               	movlw	191
  4538   002256  6FA7               	movwf	(___fladd@a+3)& (0+255),b
  4539   002258  51CB               	movf	PWM_Init@press& (0+255),w,b
  4540   00225A  6F60               	movwf	___xxtofl@val& (0+255),b
  4541   00225C  6B61               	clrf	(___xxtofl@val+1)& (0+255),b
  4542   00225E  6B62               	clrf	(___xxtofl@val+2)& (0+255),b
  4543   002260  6B63               	clrf	(___xxtofl@val+3)& (0+255),b
  4544   002262  0E01               	movlw	1
  4545   002264  ECE2  F011         	call	___xxtofl
  4546   002268  C060  F08B         	movff	?___xxtofl,___flmul@a
  4547   00226C  C061  F08C         	movff	?___xxtofl+1,___flmul@a+1
  4548   002270  C062  F08D         	movff	?___xxtofl+2,___flmul@a+2
  4549   002274  C063  F08E         	movff	?___xxtofl+3,___flmul@a+3
  4550   002278  C0BF  F087         	movff	_PWM_Init$1356,___flmul@b
  4551   00227C  C0C0  F088         	movff	_PWM_Init$1356+1,___flmul@b+1
  4552   002280  C0C1  F089         	movff	_PWM_Init$1356+2,___flmul@b+2
  4553   002284  C0C2  F08A         	movff	_PWM_Init$1356+3,___flmul@b+3
  4554   002288  EC87  F006         	call	___flmul	;wreg free
  4555   00228C  C087  F072         	movff	?___flmul,___fldiv@a
  4556   002290  C088  F073         	movff	?___flmul+1,___fldiv@a+1
  4557   002294  C089  F074         	movff	?___flmul+2,___fldiv@a+2
  4558   002298  C08A  F075         	movff	?___flmul+3,___fldiv@a+3
  4559   00229C  C0C3  F06E         	movff	PWM_Init@Tpwm,___fldiv@b
  4560   0022A0  C0C4  F06F         	movff	PWM_Init@Tpwm+1,___fldiv@b+1
  4561   0022A4  C0C5  F070         	movff	PWM_Init@Tpwm+2,___fldiv@b+2
  4562   0022A8  C0C6  F071         	movff	PWM_Init@Tpwm+3,___fldiv@b+3
  4563   0022AC  ECB2  F00A         	call	___fldiv	;wreg free
  4564   0022B0  C06E  F0A0         	movff	?___fldiv,___fladd@b
  4565   0022B4  C06F  F0A1         	movff	?___fldiv+1,___fladd@b+1
  4566   0022B8  C070  F0A2         	movff	?___fldiv+2,___fladd@b+2
  4567   0022BC  C071  F0A3         	movff	?___fldiv+3,___fladd@b+3
  4568   0022C0  EC26  F004         	call	___fladd	;wreg free
  4569   0022C4  C0A0  F0B0         	movff	?___fladd,___fltol@f1
  4570   0022C8  C0A1  F0B1         	movff	?___fladd+1,___fltol@f1+1
  4571   0022CC  C0A2  F0B2         	movff	?___fladd+2,___fltol@f1+2
  4572   0022D0  C0A3  F0B3         	movff	?___fladd+3,___fltol@f1+3
  4573   0022D4  EC50  F016         	call	___fltol	;wreg free
  4574   0022D8  0100               	movlb	0	; () banked
  4575   0022DA  51B0               	movf	?___fltol& (0+255),w,b
  4576   0022DC  6ECB               	movwf	203,c	;volatile
  4577   0022DE                     
  4578                           ; BSR set to: 0
  4579                           ;PWM_LIB.c: 22:     reg10bits = (int)(Tpwm / (Tosc * press));
  4580   0022DE  C0C7  F08B         	movff	PWM_Init@Tosc,___flmul@a
  4581   0022E2  C0C8  F08C         	movff	PWM_Init@Tosc+1,___flmul@a+1
  4582   0022E6  C0C9  F08D         	movff	PWM_Init@Tosc+2,___flmul@a+2
  4583   0022EA  C0CA  F08E         	movff	PWM_Init@Tosc+3,___flmul@a+3
  4584   0022EE  51CB               	movf	PWM_Init@press& (0+255),w,b
  4585   0022F0  6F60               	movwf	___xxtofl@val& (0+255),b
  4586   0022F2  6B61               	clrf	(___xxtofl@val+1)& (0+255),b
  4587   0022F4  6B62               	clrf	(___xxtofl@val+2)& (0+255),b
  4588   0022F6  6B63               	clrf	(___xxtofl@val+3)& (0+255),b
  4589   0022F8  0E01               	movlw	1
  4590   0022FA  ECE2  F011         	call	___xxtofl
  4591   0022FE  C060  F087         	movff	?___xxtofl,___flmul@b
  4592   002302  C061  F088         	movff	?___xxtofl+1,___flmul@b+1
  4593   002306  C062  F089         	movff	?___xxtofl+2,___flmul@b+2
  4594   00230A  C063  F08A         	movff	?___xxtofl+3,___flmul@b+3
  4595   00230E  EC87  F006         	call	___flmul	;wreg free
  4596   002312  C087  F072         	movff	?___flmul,___fldiv@a
  4597   002316  C088  F073         	movff	?___flmul+1,___fldiv@a+1
  4598   00231A  C089  F074         	movff	?___flmul+2,___fldiv@a+2
  4599   00231E  C08A  F075         	movff	?___flmul+3,___fldiv@a+3
  4600   002322  C0C3  F06E         	movff	PWM_Init@Tpwm,___fldiv@b
  4601   002326  C0C4  F06F         	movff	PWM_Init@Tpwm+1,___fldiv@b+1
  4602   00232A  C0C5  F070         	movff	PWM_Init@Tpwm+2,___fldiv@b+2
  4603   00232E  C0C6  F071         	movff	PWM_Init@Tpwm+3,___fldiv@b+3
  4604   002332  ECB2  F00A         	call	___fldiv	;wreg free
  4605   002336  C06E  F0B0         	movff	?___fldiv,___fltol@f1
  4606   00233A  C06F  F0B1         	movff	?___fldiv+1,___fltol@f1+1
  4607   00233E  C070  F0B2         	movff	?___fldiv+2,___fltol@f1+2
  4608   002342  C071  F0B3         	movff	?___fldiv+3,___fltol@f1+3
  4609   002346  EC50  F016         	call	___fltol	;wreg free
  4610   00234A  C0B0  F0F4         	movff	?___fltol,_reg10bits
  4611   00234E  C0B1  F0F5         	movff	?___fltol+1,_reg10bits+1
  4612   002352                     
  4613                           ;PWM_LIB.c: 24:     CCPR1L = 0;
  4614   002352  0E00               	movlw	0
  4615   002354  6EBE               	movwf	190,c	;volatile
  4616   002356                     
  4617                           ;PWM_LIB.c: 25:     CCP1CONbits.DC1B = 0;
  4618   002356  0ECF               	movlw	-49
  4619   002358  16BD               	andwf	189,f,c	;volatile
  4620   00235A                     
  4621                           ;PWM_LIB.c: 27:     T2CON = 0x00;
  4622   00235A  0E00               	movlw	0
  4623   00235C  6ECA               	movwf	202,c	;volatile
  4624                           
  4625                           ;PWM_LIB.c: 29:     switch (press) {
  4626   00235E  EFC1  F011         	goto	l3607
  4627   002362                     l3599:
  4628                           
  4629                           ; BSR set to: 0
  4630   002362  0EFC               	movlw	-4
  4631   002364  16CA               	andwf	202,f,c	;volatile
  4632                           
  4633                           ;PWM_LIB.c: 31:             break;
  4634   002366  EFDB  F011         	goto	l3609
  4635   00236A                     l3601:
  4636                           
  4637                           ; BSR set to: 0
  4638   00236A  50CA               	movf	202,w,c	;volatile
  4639   00236C  0BFC               	andlw	-4
  4640   00236E  0901               	iorlw	1
  4641   002370  6ECA               	movwf	202,c	;volatile
  4642                           
  4643                           ;PWM_LIB.c: 33:             break;
  4644   002372  EFDB  F011         	goto	l3609
  4645   002376                     l3603:
  4646                           
  4647                           ; BSR set to: 0
  4648   002376  50CA               	movf	202,w,c	;volatile
  4649   002378  0BFC               	andlw	-4
  4650   00237A  0902               	iorlw	2
  4651   00237C  6ECA               	movwf	202,c	;volatile
  4652                           
  4653                           ;PWM_LIB.c: 35:             break;
  4654   00237E  EFDB  F011         	goto	l3609
  4655   002382                     l3607:
  4656   002382  0100               	movlb	0	; () banked
  4657   002384  51CB               	movf	PWM_Init@press& (0+255),w,b
  4658   002386  6FBD               	movwf	??_PWM_Init& (0+255),b
  4659   002388  6BBE               	clrf	(??_PWM_Init+1)& (0+255),b
  4660                           
  4661                           ; Switch on 2 bytes has been partitioned into a top level switch of size 1, and 1 sub-sw
      +                          itches
  4662                           ; Switch size 1, requested type "simple"
  4663                           ; Number of cases is 1, Range of values is 0 to 0
  4664                           ; switch strategies available:
  4665                           ; Name         Instructions Cycles
  4666                           ; simple_byte            4     3 (average)
  4667                           ;	Chosen strategy is simple_byte
  4668   00238A  51BE               	movf	(??_PWM_Init+1)& (0+255),w,b
  4669   00238C  0A00               	xorlw	0	; case 0
  4670   00238E  B4D8               	btfsc	status,2,c
  4671   002390  EFCC  F011         	goto	l4103
  4672   002394  EFDB  F011         	goto	l3609
  4673   002398                     l4103:
  4674                           
  4675                           ; BSR set to: 0
  4676                           ; Switch size 1, requested type "simple"
  4677                           ; Number of cases is 3, Range of values is 1 to 16
  4678                           ; switch strategies available:
  4679                           ; Name         Instructions Cycles
  4680                           ; simple_byte           10     6 (average)
  4681                           ;	Chosen strategy is simple_byte
  4682   002398  51BD               	movf	??_PWM_Init& (0+255),w,b
  4683   00239A  0A01               	xorlw	1	; case 1
  4684   00239C  B4D8               	btfsc	status,2,c
  4685   00239E  EFB1  F011         	goto	l3599
  4686   0023A2  0A05               	xorlw	5	; case 4
  4687   0023A4  B4D8               	btfsc	status,2,c
  4688   0023A6  EFB5  F011         	goto	l3601
  4689   0023AA  0A14               	xorlw	20	; case 16
  4690   0023AC  B4D8               	btfsc	status,2,c
  4691   0023AE  EFBB  F011         	goto	l3603
  4692   0023B2  EFDB  F011         	goto	l3609
  4693   0023B6                     l3609:
  4694                           
  4695                           ; BSR set to: 0
  4696                           ;PWM_LIB.c: 38:     TMR2 = 0;
  4697   0023B6  0E00               	movlw	0
  4698   0023B8  6ECC               	movwf	204,c	;volatile
  4699                           
  4700                           ;PWM_LIB.c: 39:     CCP1CONbits.CCP1M = 0b1100;
  4701   0023BA  50BD               	movf	189,w,c	;volatile
  4702   0023BC  0BF0               	andlw	-16
  4703   0023BE  090C               	iorlw	12
  4704   0023C0  6EBD               	movwf	189,c	;volatile
  4705   0023C2                     
  4706                           ; BSR set to: 0
  4707   0023C2  0012               	return		;funcret
  4708   0023C4                     __end_of_PWM_Init:
  4709                           	callstack 0
  4710                           
  4711 ;; *************** function ___fladd *****************
  4712 ;; Defined at:
  4713 ;;		line 10 in file "C:\Program Files\Microchip\xc8\v2.40\pic\sources\c99\common\sprcadd.c"
  4714 ;; Parameters:    Size  Location     Type
  4715 ;;  b               4   64[BANK0 ] void 
  4716 ;;  a               4   68[BANK0 ] void 
  4717 ;; Auto vars:     Size  Location     Type
  4718 ;;  grs             1   79[BANK0 ] unsigned char 
  4719 ;;  bexp            1   78[BANK0 ] unsigned char 
  4720 ;;  aexp            1   77[BANK0 ] unsigned char 
  4721 ;;  signs           1   76[BANK0 ] unsigned char 
  4722 ;; Return value:  Size  Location     Type
  4723 ;;                  4   64[BANK0 ] unsigned char 
  4724 ;; Registers used:
  4725 ;;		wreg, status,2, status,0
  4726 ;; Tracked objects:
  4727 ;;		On entry : 0/0
  4728 ;;		On exit  : 0/0
  4729 ;;		Unchanged: 0/0
  4730 ;; Data sizes:     COMRAM   BANK0   BANK1   BANK2   BANK3   BANK4   BANK5   BANK6   BANK7
  4731 ;;      Params:         0       8       0       0       0       0       0       0       0
  4732 ;;      Locals:         0       4       0       0       0       0       0       0       0
  4733 ;;      Temps:          0       4       0       0       0       0       0       0       0
  4734 ;;      Totals:         0      16       0       0       0       0       0       0       0
  4735 ;;Total ram usage:       16 bytes
  4736 ;; Hardware stack levels used: 1
  4737 ;; Hardware stack levels required when called: 2
  4738 ;; This function calls:
  4739 ;;		Nothing
  4740 ;; This function is called by:
  4741 ;;		_pid
  4742 ;;		_PWM_Init
  4743 ;;		___flsub
  4744 ;; This function uses a non-reentrant model
  4745 ;;
  4746                           
  4747                           	psect	text23
  4748   00084C                     __ptext23:
  4749                           	callstack 0
  4750   00084C                     ___fladd:
  4751                           	callstack 26
  4752   00084C  0100               	movlb	0	; () banked
  4753   00084E  51A3               	movf	(___fladd@b+3)& (0+255),w,b
  4754   000850  0B80               	andlw	128
  4755   000852  6FAC               	movwf	___fladd@signs& (0+255),b
  4756   000854  51A3               	movf	(___fladd@b+3)& (0+255),w,b
  4757   000856  25A3               	addwf	(___fladd@b+3)& (0+255),w,b
  4758   000858  6FAE               	movwf	___fladd@bexp& (0+255),b
  4759   00085A                     
  4760                           ; BSR set to: 0
  4761   00085A  AFA2               	btfss	(___fladd@b+2)& (0+255),7,b
  4762   00085C  EF32  F004         	goto	u2501
  4763   000860  EF34  F004         	goto	u2500
  4764   000864                     u2501:
  4765   000864  EF35  F004         	goto	l2859
  4766   000868                     u2500:
  4767   000868                     
  4768                           ; BSR set to: 0
  4769   000868  81AE               	bsf	___fladd@bexp& (0+255),0,b
  4770   00086A                     l2859:
  4771                           
  4772                           ; BSR set to: 0
  4773   00086A  51AE               	movf	___fladd@bexp& (0+255),w,b
  4774   00086C  B4D8               	btfsc	status,2,c
  4775   00086E  EF3B  F004         	goto	u2511
  4776   000872  EF3D  F004         	goto	u2510
  4777   000876                     u2511:
  4778   000876  EF52  F004         	goto	l2869
  4779   00087A                     u2510:
  4780   00087A                     
  4781                           ; BSR set to: 0
  4782   00087A  29AE               	incf	___fladd@bexp& (0+255),w,b
  4783   00087C  A4D8               	btfss	status,2,c
  4784   00087E  EF43  F004         	goto	u2521
  4785   000882  EF45  F004         	goto	u2520
  4786   000886                     u2521:
  4787   000886  EF4D  F004         	goto	l2865
  4788   00088A                     u2520:
  4789   00088A                     
  4790                           ; BSR set to: 0
  4791   00088A  0E00               	movlw	0
  4792   00088C  6FA0               	movwf	___fladd@b& (0+255),b
  4793   00088E  0E00               	movlw	0
  4794   000890  6FA1               	movwf	(___fladd@b+1)& (0+255),b
  4795   000892  0E00               	movlw	0
  4796   000894  6FA2               	movwf	(___fladd@b+2)& (0+255),b
  4797   000896  0E00               	movlw	0
  4798   000898  6FA3               	movwf	(___fladd@b+3)& (0+255),b
  4799   00089A                     l2865:
  4800                           
  4801                           ; BSR set to: 0
  4802   00089A  8FA2               	bsf	(___fladd@b+2)& (0+255),7,b
  4803   00089C                     
  4804                           ; BSR set to: 0
  4805   00089C  0E00               	movlw	0
  4806   00089E  6FA3               	movwf	(___fladd@b+3)& (0+255),b
  4807   0008A0  EF5A  F004         	goto	l2871
  4808   0008A4                     l2869:
  4809                           
  4810                           ; BSR set to: 0
  4811   0008A4  0E00               	movlw	0
  4812   0008A6  6FA0               	movwf	___fladd@b& (0+255),b
  4813   0008A8  0E00               	movlw	0
  4814   0008AA  6FA1               	movwf	(___fladd@b+1)& (0+255),b
  4815   0008AC  0E00               	movlw	0
  4816   0008AE  6FA2               	movwf	(___fladd@b+2)& (0+255),b
  4817   0008B0  0E00               	movlw	0
  4818   0008B2  6FA3               	movwf	(___fladd@b+3)& (0+255),b
  4819   0008B4                     l2871:
  4820                           
  4821                           ; BSR set to: 0
  4822   0008B4  51A7               	movf	(___fladd@a+3)& (0+255),w,b
  4823   0008B6  0B80               	andlw	128
  4824   0008B8  6FAD               	movwf	___fladd@aexp& (0+255),b
  4825   0008BA                     
  4826                           ; BSR set to: 0
  4827   0008BA  51AC               	movf	___fladd@signs& (0+255),w,b
  4828   0008BC  19AD               	xorwf	___fladd@aexp& (0+255),w,b
  4829   0008BE  B4D8               	btfsc	status,2,c
  4830   0008C0  EF64  F004         	goto	u2531
  4831   0008C4  EF66  F004         	goto	u2530
  4832   0008C8                     u2531:
  4833   0008C8  EF67  F004         	goto	l2877
  4834   0008CC                     u2530:
  4835   0008CC                     
  4836                           ; BSR set to: 0
  4837   0008CC  8DAC               	bsf	___fladd@signs& (0+255),6,b
  4838   0008CE                     l2877:
  4839                           
  4840                           ; BSR set to: 0
  4841   0008CE  51A7               	movf	(___fladd@a+3)& (0+255),w,b
  4842   0008D0  25A7               	addwf	(___fladd@a+3)& (0+255),w,b
  4843   0008D2  6FAD               	movwf	___fladd@aexp& (0+255),b
  4844   0008D4                     
  4845                           ; BSR set to: 0
  4846   0008D4  AFA6               	btfss	(___fladd@a+2)& (0+255),7,b
  4847   0008D6  EF6F  F004         	goto	u2541
  4848   0008DA  EF71  F004         	goto	u2540
  4849   0008DE                     u2541:
  4850   0008DE  EF72  F004         	goto	l2883
  4851   0008E2                     u2540:
  4852   0008E2                     
  4853                           ; BSR set to: 0
  4854   0008E2  81AD               	bsf	___fladd@aexp& (0+255),0,b
  4855   0008E4                     l2883:
  4856                           
  4857                           ; BSR set to: 0
  4858   0008E4  51AD               	movf	___fladd@aexp& (0+255),w,b
  4859   0008E6  B4D8               	btfsc	status,2,c
  4860   0008E8  EF78  F004         	goto	u2551
  4861   0008EC  EF7A  F004         	goto	u2550
  4862   0008F0                     u2551:
  4863   0008F0  EF8F  F004         	goto	l2893
  4864   0008F4                     u2550:
  4865   0008F4                     
  4866                           ; BSR set to: 0
  4867   0008F4  29AD               	incf	___fladd@aexp& (0+255),w,b
  4868   0008F6  A4D8               	btfss	status,2,c
  4869   0008F8  EF80  F004         	goto	u2561
  4870   0008FC  EF82  F004         	goto	u2560
  4871   000900                     u2561:
  4872   000900  EF8A  F004         	goto	l2889
  4873   000904                     u2560:
  4874   000904                     
  4875                           ; BSR set to: 0
  4876   000904  0E00               	movlw	0
  4877   000906  6FA4               	movwf	___fladd@a& (0+255),b
  4878   000908  0E00               	movlw	0
  4879   00090A  6FA5               	movwf	(___fladd@a+1)& (0+255),b
  4880   00090C  0E00               	movlw	0
  4881   00090E  6FA6               	movwf	(___fladd@a+2)& (0+255),b
  4882   000910  0E00               	movlw	0
  4883   000912  6FA7               	movwf	(___fladd@a+3)& (0+255),b
  4884   000914                     l2889:
  4885                           
  4886                           ; BSR set to: 0
  4887   000914  8FA6               	bsf	(___fladd@a+2)& (0+255),7,b
  4888   000916                     
  4889                           ; BSR set to: 0
  4890   000916  0E00               	movlw	0
  4891   000918  6FA7               	movwf	(___fladd@a+3)& (0+255),b
  4892   00091A  EF97  F004         	goto	l2895
  4893   00091E                     l2893:
  4894                           
  4895                           ; BSR set to: 0
  4896   00091E  0E00               	movlw	0
  4897   000920  6FA4               	movwf	___fladd@a& (0+255),b
  4898   000922  0E00               	movlw	0
  4899   000924  6FA5               	movwf	(___fladd@a+1)& (0+255),b
  4900   000926  0E00               	movlw	0
  4901   000928  6FA6               	movwf	(___fladd@a+2)& (0+255),b
  4902   00092A  0E00               	movlw	0
  4903   00092C  6FA7               	movwf	(___fladd@a+3)& (0+255),b
  4904   00092E                     l2895:
  4905                           
  4906                           ; BSR set to: 0
  4907   00092E  51AE               	movf	___fladd@bexp& (0+255),w,b
  4908   000930  5DAD               	subwf	___fladd@aexp& (0+255),w,b
  4909   000932  B0D8               	btfsc	status,0,c
  4910   000934  EF9E  F004         	goto	u2571
  4911   000938  EFA0  F004         	goto	u2570
  4912   00093C                     u2571:
  4913   00093C  EFC7  F004         	goto	l2931
  4914   000940                     u2570:
  4915   000940                     
  4916                           ; BSR set to: 0
  4917   000940  ADAC               	btfss	___fladd@signs& (0+255),6,b
  4918   000942  EFA5  F004         	goto	u2581
  4919   000946  EFA7  F004         	goto	u2580
  4920   00094A                     u2581:
  4921   00094A  EFA9  F004         	goto	l2901
  4922   00094E                     u2580:
  4923   00094E                     
  4924                           ; BSR set to: 0
  4925   00094E  0E80               	movlw	128
  4926   000950  1BAC               	xorwf	___fladd@signs& (0+255),f,b
  4927   000952                     l2901:
  4928                           
  4929                           ; BSR set to: 0
  4930   000952  C0AE  F0AF         	movff	___fladd@bexp,___fladd@grs
  4931   000956                     
  4932                           ; BSR set to: 0
  4933   000956  C0AD  F0AE         	movff	___fladd@aexp,___fladd@bexp
  4934   00095A                     
  4935                           ; BSR set to: 0
  4936   00095A  C0AF  F0AD         	movff	___fladd@grs,___fladd@aexp
  4937   00095E                     
  4938                           ; BSR set to: 0
  4939   00095E  C0A0  F0AF         	movff	___fladd@b,___fladd@grs
  4940   000962                     
  4941                           ; BSR set to: 0
  4942   000962  C0A4  F0A0         	movff	___fladd@a,___fladd@b
  4943   000966                     
  4944                           ; BSR set to: 0
  4945   000966  C0AF  F0A4         	movff	___fladd@grs,___fladd@a
  4946   00096A                     
  4947                           ; BSR set to: 0
  4948   00096A  C0A1  F0AF         	movff	___fladd@b+1,___fladd@grs
  4949   00096E                     
  4950                           ; BSR set to: 0
  4951   00096E  C0A5  F0A1         	movff	___fladd@a+1,___fladd@b+1
  4952   000972                     
  4953                           ; BSR set to: 0
  4954   000972  C0AF  F0A5         	movff	___fladd@grs,___fladd@a+1
  4955   000976                     
  4956                           ; BSR set to: 0
  4957   000976  C0A2  F0AF         	movff	___fladd@b+2,___fladd@grs
  4958   00097A                     
  4959                           ; BSR set to: 0
  4960   00097A  C0A6  F0A2         	movff	___fladd@a+2,___fladd@b+2
  4961   00097E                     
  4962                           ; BSR set to: 0
  4963   00097E  C0AF  F0A6         	movff	___fladd@grs,___fladd@a+2
  4964   000982                     
  4965                           ; BSR set to: 0
  4966   000982  C0A3  F0AF         	movff	___fladd@b+3,___fladd@grs
  4967   000986                     
  4968                           ; BSR set to: 0
  4969   000986  C0A7  F0A3         	movff	___fladd@a+3,___fladd@b+3
  4970   00098A                     
  4971                           ; BSR set to: 0
  4972   00098A  C0AF  F0A7         	movff	___fladd@grs,___fladd@a+3
  4973   00098E                     l2931:
  4974                           
  4975                           ; BSR set to: 0
  4976   00098E  0E00               	movlw	0
  4977   000990  6FAF               	movwf	___fladd@grs& (0+255),b
  4978   000992                     
  4979                           ; BSR set to: 0
  4980   000992  51AE               	movf	___fladd@bexp& (0+255),w,b
  4981   000994  C0AD  F0A8         	movff	___fladd@aexp,??___fladd
  4982   000998  6BA9               	clrf	(??___fladd+1)& (0+255),b
  4983   00099A  5FA8               	subwf	??___fladd& (0+255),f,b
  4984   00099C  0E00               	movlw	0
  4985   00099E  5BA9               	subwfb	(??___fladd+1)& (0+255),f,b
  4986   0009A0  BFA9               	btfsc	(??___fladd+1)& (0+255),7,b
  4987   0009A2  EFDC  F004         	goto	u2591
  4988   0009A6  51A9               	movf	(??___fladd+1)& (0+255),w,b
  4989   0009A8  E109               	bnz	u2590
  4990   0009AA  0E1A               	movlw	26
  4991   0009AC  5DA8               	subwf	??___fladd& (0+255),w,b
  4992   0009AE  A0D8               	btfss	status,0,c
  4993   0009B0  EFDC  F004         	goto	u2591
  4994   0009B4  EFDE  F004         	goto	u2590
  4995   0009B8                     u2591:
  4996   0009B8  EF15  F005         	goto	l713
  4997   0009BC                     u2590:
  4998   0009BC                     
  4999                           ; BSR set to: 0
  5000   0009BC  51A0               	movf	___fladd@b& (0+255),w,b
  5001   0009BE  11A1               	iorwf	(___fladd@b+1)& (0+255),w,b
  5002   0009C0  11A2               	iorwf	(___fladd@b+2)& (0+255),w,b
  5003   0009C2  11A3               	iorwf	(___fladd@b+3)& (0+255),w,b
  5004   0009C4  A4D8               	btfss	status,2,c
  5005   0009C6  EFE7  F004         	goto	u2601
  5006   0009CA  EFEA  F004         	goto	u2600
  5007   0009CE                     u2601:
  5008   0009CE  0E01               	movlw	1
  5009   0009D0  EFEB  F004         	goto	u2610
  5010   0009D4                     u2600:
  5011   0009D4  0E00               	movlw	0
  5012   0009D6                     u2610:
  5013   0009D6  6FAF               	movwf	___fladd@grs& (0+255),b
  5014   0009D8                     
  5015                           ; BSR set to: 0
  5016   0009D8  0E00               	movlw	0
  5017   0009DA  6FA0               	movwf	___fladd@b& (0+255),b
  5018   0009DC  0E00               	movlw	0
  5019   0009DE  6FA1               	movwf	(___fladd@b+1)& (0+255),b
  5020   0009E0  0E00               	movlw	0
  5021   0009E2  6FA2               	movwf	(___fladd@b+2)& (0+255),b
  5022   0009E4  0E00               	movlw	0
  5023   0009E6  6FA3               	movwf	(___fladd@b+3)& (0+255),b
  5024   0009E8                     
  5025                           ; BSR set to: 0
  5026   0009E8  C0AD  F0AE         	movff	___fladd@aexp,___fladd@bexp
  5027   0009EC  EF1E  F005         	goto	l712
  5028   0009F0                     l714:
  5029                           
  5030                           ; BSR set to: 0
  5031   0009F0  A1AF               	btfss	___fladd@grs& (0+255),0,b
  5032   0009F2  EFFD  F004         	goto	u2621
  5033   0009F6  EFFF  F004         	goto	u2620
  5034   0009FA                     u2621:
  5035   0009FA  EF05  F005         	goto	l2943
  5036   0009FE                     u2620:
  5037   0009FE                     
  5038                           ; BSR set to: 0
  5039   0009FE  90D8               	bcf	status,0,c
  5040   000A00  31AF               	rrcf	___fladd@grs& (0+255),w,b
  5041   000A02  0901               	iorlw	1
  5042   000A04  6FAF               	movwf	___fladd@grs& (0+255),b
  5043   000A06  EF07  F005         	goto	l2945
  5044   000A0A                     l2943:
  5045                           
  5046                           ; BSR set to: 0
  5047   000A0A  90D8               	bcf	status,0,c
  5048   000A0C  33AF               	rrcf	___fladd@grs& (0+255),f,b
  5049   000A0E                     l2945:
  5050                           
  5051                           ; BSR set to: 0
  5052   000A0E  A1A0               	btfss	___fladd@b& (0+255),0,b
  5053   000A10  EF0C  F005         	goto	u2631
  5054   000A14  EF0E  F005         	goto	u2630
  5055   000A18                     u2631:
  5056   000A18  EF0F  F005         	goto	l2949
  5057   000A1C                     u2630:
  5058   000A1C                     
  5059                           ; BSR set to: 0
  5060   000A1C  8FAF               	bsf	___fladd@grs& (0+255),7,b
  5061   000A1E                     l2949:
  5062                           
  5063                           ; BSR set to: 0
  5064   000A1E  35A3               	rlcf	(___fladd@b+3)& (0+255),w,b
  5065   000A20  33A3               	rrcf	(___fladd@b+3)& (0+255),f,b
  5066   000A22  33A2               	rrcf	(___fladd@b+2)& (0+255),f,b
  5067   000A24  33A1               	rrcf	(___fladd@b+1)& (0+255),f,b
  5068   000A26  33A0               	rrcf	___fladd@b& (0+255),f,b
  5069   000A28                     
  5070                           ; BSR set to: 0
  5071   000A28  2BAE               	incf	___fladd@bexp& (0+255),f,b
  5072   000A2A                     l713:
  5073                           
  5074                           ; BSR set to: 0
  5075   000A2A  51AD               	movf	___fladd@aexp& (0+255),w,b
  5076   000A2C  5DAE               	subwf	___fladd@bexp& (0+255),w,b
  5077   000A2E  A0D8               	btfss	status,0,c
  5078   000A30  EF1C  F005         	goto	u2641
  5079   000A34  EF1E  F005         	goto	u2640
  5080   000A38                     u2641:
  5081   000A38  EFF8  F004         	goto	l714
  5082   000A3C                     u2640:
  5083   000A3C                     l712:
  5084                           
  5085                           ; BSR set to: 0
  5086   000A3C  BDAC               	btfsc	___fladd@signs& (0+255),6,b
  5087   000A3E  EF23  F005         	goto	u2651
  5088   000A42  EF25  F005         	goto	u2650
  5089   000A46                     u2651:
  5090   000A46  EF65  F005         	goto	l2977
  5091   000A4A                     u2650:
  5092   000A4A                     
  5093                           ; BSR set to: 0
  5094   000A4A  51AE               	movf	___fladd@bexp& (0+255),w,b
  5095   000A4C  A4D8               	btfss	status,2,c
  5096   000A4E  EF2B  F005         	goto	u2661
  5097   000A52  EF2D  F005         	goto	u2660
  5098   000A56                     u2661:
  5099   000A56  EF37  F005         	goto	l2959
  5100   000A5A                     u2660:
  5101   000A5A                     
  5102                           ; BSR set to: 0
  5103   000A5A  0E00               	movlw	0
  5104   000A5C  6FA0               	movwf	?___fladd& (0+255),b
  5105   000A5E  0E00               	movlw	0
  5106   000A60  6FA1               	movwf	(?___fladd+1)& (0+255),b
  5107   000A62  0E00               	movlw	0
  5108   000A64  6FA2               	movwf	(?___fladd+2)& (0+255),b
  5109   000A66  0E00               	movlw	0
  5110   000A68  6FA3               	movwf	(?___fladd+3)& (0+255),b
  5111   000A6A  EF86  F006         	goto	l721
  5112   000A6E                     l2959:
  5113                           
  5114                           ; BSR set to: 0
  5115   000A6E  51A4               	movf	___fladd@a& (0+255),w,b
  5116   000A70  27A0               	addwf	___fladd@b& (0+255),f,b
  5117   000A72  51A5               	movf	(___fladd@a+1)& (0+255),w,b
  5118   000A74  23A1               	addwfc	(___fladd@b+1)& (0+255),f,b
  5119   000A76  51A6               	movf	(___fladd@a+2)& (0+255),w,b
  5120   000A78  23A2               	addwfc	(___fladd@b+2)& (0+255),f,b
  5121   000A7A  51A7               	movf	(___fladd@a+3)& (0+255),w,b
  5122   000A7C  23A3               	addwfc	(___fladd@b+3)& (0+255),f,b
  5123   000A7E                     
  5124                           ; BSR set to: 0
  5125   000A7E  A1A3               	btfss	(___fladd@b+3)& (0+255),0,b
  5126   000A80  EF44  F005         	goto	u2671
  5127   000A84  EF46  F005         	goto	u2670
  5128   000A88                     u2671:
  5129   000A88  EFF2  F005         	goto	l3013
  5130   000A8C                     u2670:
  5131   000A8C                     
  5132                           ; BSR set to: 0
  5133   000A8C  A1AF               	btfss	___fladd@grs& (0+255),0,b
  5134   000A8E  EF4B  F005         	goto	u2681
  5135   000A92  EF4D  F005         	goto	u2680
  5136   000A96                     u2681:
  5137   000A96  EF53  F005         	goto	l2967
  5138   000A9A                     u2680:
  5139   000A9A                     
  5140                           ; BSR set to: 0
  5141   000A9A  90D8               	bcf	status,0,c
  5142   000A9C  31AF               	rrcf	___fladd@grs& (0+255),w,b
  5143   000A9E  0901               	iorlw	1
  5144   000AA0  6FAF               	movwf	___fladd@grs& (0+255),b
  5145   000AA2  EF55  F005         	goto	l2969
  5146   000AA6                     l2967:
  5147                           
  5148                           ; BSR set to: 0
  5149   000AA6  90D8               	bcf	status,0,c
  5150   000AA8  33AF               	rrcf	___fladd@grs& (0+255),f,b
  5151   000AAA                     l2969:
  5152                           
  5153                           ; BSR set to: 0
  5154   000AAA  A1A0               	btfss	___fladd@b& (0+255),0,b
  5155   000AAC  EF5A  F005         	goto	u2691
  5156   000AB0  EF5C  F005         	goto	u2690
  5157   000AB4                     u2691:
  5158   000AB4  EF5D  F005         	goto	l2973
  5159   000AB8                     u2690:
  5160   000AB8                     
  5161                           ; BSR set to: 0
  5162   000AB8  8FAF               	bsf	___fladd@grs& (0+255),7,b
  5163   000ABA                     l2973:
  5164                           
  5165                           ; BSR set to: 0
  5166   000ABA  35A3               	rlcf	(___fladd@b+3)& (0+255),w,b
  5167   000ABC  33A3               	rrcf	(___fladd@b+3)& (0+255),f,b
  5168   000ABE  33A2               	rrcf	(___fladd@b+2)& (0+255),f,b
  5169   000AC0  33A1               	rrcf	(___fladd@b+1)& (0+255),f,b
  5170   000AC2  33A0               	rrcf	___fladd@b& (0+255),f,b
  5171   000AC4                     
  5172                           ; BSR set to: 0
  5173   000AC4  2BAE               	incf	___fladd@bexp& (0+255),f,b
  5174   000AC6  EFF2  F005         	goto	l3013
  5175   000ACA                     l2977:
  5176                           
  5177                           ; BSR set to: 0
  5178   000ACA  51A4               	movf	___fladd@a& (0+255),w,b
  5179   000ACC  5DA0               	subwf	___fladd@b& (0+255),w,b
  5180   000ACE  51A5               	movf	(___fladd@a+1)& (0+255),w,b
  5181   000AD0  59A1               	subwfb	(___fladd@b+1)& (0+255),w,b
  5182   000AD2  51A6               	movf	(___fladd@a+2)& (0+255),w,b
  5183   000AD4  59A2               	subwfb	(___fladd@b+2)& (0+255),w,b
  5184   000AD6  51A3               	movf	(___fladd@b+3)& (0+255),w,b
  5185   000AD8  0A80               	xorlw	128
  5186   000ADA  6FA8               	movwf	??___fladd& (0+255),b
  5187   000ADC  51A7               	movf	(___fladd@a+3)& (0+255),w,b
  5188   000ADE  0A80               	xorlw	128
  5189   000AE0  59A8               	subwfb	??___fladd& (0+255),w,b
  5190   000AE2  B0D8               	btfsc	status,0,c
  5191   000AE4  EF76  F005         	goto	u2701
  5192   000AE8  EF78  F005         	goto	u2700
  5193   000AEC                     u2701:
  5194   000AEC  EFA3  F005         	goto	l2987
  5195   000AF0                     u2700:
  5196   000AF0                     
  5197                           ; BSR set to: 0
  5198   000AF0  51A0               	movf	___fladd@b& (0+255),w,b
  5199   000AF2  5DA4               	subwf	___fladd@a& (0+255),w,b
  5200   000AF4  6FA8               	movwf	??___fladd& (0+255),b
  5201   000AF6  51A1               	movf	(___fladd@b+1)& (0+255),w,b
  5202   000AF8  59A5               	subwfb	(___fladd@a+1)& (0+255),w,b
  5203   000AFA  6FA9               	movwf	(??___fladd+1)& (0+255),b
  5204   000AFC  51A2               	movf	(___fladd@b+2)& (0+255),w,b
  5205   000AFE  59A6               	subwfb	(___fladd@a+2)& (0+255),w,b
  5206   000B00  6FAA               	movwf	(??___fladd+2)& (0+255),b
  5207   000B02  51A3               	movf	(___fladd@b+3)& (0+255),w,b
  5208   000B04  59A7               	subwfb	(___fladd@a+3)& (0+255),w,b
  5209   000B06  6FAB               	movwf	(??___fladd+3)& (0+255),b
  5210   000B08  0EFF               	movlw	255
  5211   000B0A  25A8               	addwf	??___fladd& (0+255),w,b
  5212   000B0C  6FA0               	movwf	___fladd@b& (0+255),b
  5213   000B0E  0EFF               	movlw	255
  5214   000B10  21A9               	addwfc	(??___fladd+1)& (0+255),w,b
  5215   000B12  6FA1               	movwf	(___fladd@b+1)& (0+255),b
  5216   000B14  0EFF               	movlw	255
  5217   000B16  21AA               	addwfc	(??___fladd+2)& (0+255),w,b
  5218   000B18  6FA2               	movwf	(___fladd@b+2)& (0+255),b
  5219   000B1A  0EFF               	movlw	255
  5220   000B1C  21AB               	addwfc	(??___fladd+3)& (0+255),w,b
  5221   000B1E  6FA3               	movwf	(___fladd@b+3)& (0+255),b
  5222   000B20  0E80               	movlw	128
  5223   000B22  1BAC               	xorwf	___fladd@signs& (0+255),f,b
  5224   000B24                     
  5225                           ; BSR set to: 0
  5226   000B24  6DAF               	negf	___fladd@grs& (0+255),b
  5227   000B26                     
  5228                           ; BSR set to: 0
  5229   000B26  51AF               	movf	___fladd@grs& (0+255),w,b
  5230   000B28  A4D8               	btfss	status,2,c
  5231   000B2A  EF99  F005         	goto	u2711
  5232   000B2E  EF9B  F005         	goto	u2710
  5233   000B32                     u2711:
  5234   000B32  EFAB  F005         	goto	l729
  5235   000B36                     u2710:
  5236   000B36                     
  5237                           ; BSR set to: 0
  5238   000B36  0E01               	movlw	1
  5239   000B38  27A0               	addwf	___fladd@b& (0+255),f,b
  5240   000B3A  0E00               	movlw	0
  5241   000B3C  23A1               	addwfc	(___fladd@b+1)& (0+255),f,b
  5242   000B3E  23A2               	addwfc	(___fladd@b+2)& (0+255),f,b
  5243   000B40  23A3               	addwfc	(___fladd@b+3)& (0+255),f,b
  5244   000B42  EFAB  F005         	goto	l729
  5245   000B46                     l2987:
  5246                           
  5247                           ; BSR set to: 0
  5248   000B46  51A4               	movf	___fladd@a& (0+255),w,b
  5249   000B48  5FA0               	subwf	___fladd@b& (0+255),f,b
  5250   000B4A  51A5               	movf	(___fladd@a+1)& (0+255),w,b
  5251   000B4C  5BA1               	subwfb	(___fladd@b+1)& (0+255),f,b
  5252   000B4E  51A6               	movf	(___fladd@a+2)& (0+255),w,b
  5253   000B50  5BA2               	subwfb	(___fladd@b+2)& (0+255),f,b
  5254   000B52  51A7               	movf	(___fladd@a+3)& (0+255),w,b
  5255   000B54  5BA3               	subwfb	(___fladd@b+3)& (0+255),f,b
  5256   000B56                     l729:
  5257                           
  5258                           ; BSR set to: 0
  5259   000B56  51A0               	movf	___fladd@b& (0+255),w,b
  5260   000B58  11A1               	iorwf	(___fladd@b+1)& (0+255),w,b
  5261   000B5A  11A2               	iorwf	(___fladd@b+2)& (0+255),w,b
  5262   000B5C  11A3               	iorwf	(___fladd@b+3)& (0+255),w,b
  5263   000B5E  A4D8               	btfss	status,2,c
  5264   000B60  EFB4  F005         	goto	u2721
  5265   000B64  EFB6  F005         	goto	u2720
  5266   000B68                     u2721:
  5267   000B68  EFEB  F005         	goto	l3011
  5268   000B6C                     u2720:
  5269   000B6C                     
  5270                           ; BSR set to: 0
  5271   000B6C  51AF               	movf	___fladd@grs& (0+255),w,b
  5272   000B6E  A4D8               	btfss	status,2,c
  5273   000B70  EFBC  F005         	goto	u2731
  5274   000B74  EFBE  F005         	goto	u2730
  5275   000B78                     u2731:
  5276   000B78  EFEB  F005         	goto	l3011
  5277   000B7C                     u2730:
  5278   000B7C                     
  5279                           ; BSR set to: 0
  5280   000B7C  0E00               	movlw	0
  5281   000B7E  6FA0               	movwf	?___fladd& (0+255),b
  5282   000B80  0E00               	movlw	0
  5283   000B82  6FA1               	movwf	(?___fladd+1)& (0+255),b
  5284   000B84  0E00               	movlw	0
  5285   000B86  6FA2               	movwf	(?___fladd+2)& (0+255),b
  5286   000B88  0E00               	movlw	0
  5287   000B8A  6FA3               	movwf	(?___fladd+3)& (0+255),b
  5288   000B8C  EF86  F006         	goto	l721
  5289   000B90                     l2995:
  5290                           
  5291                           ; BSR set to: 0
  5292   000B90  90D8               	bcf	status,0,c
  5293   000B92  37A0               	rlcf	___fladd@b& (0+255),f,b
  5294   000B94  37A1               	rlcf	(___fladd@b+1)& (0+255),f,b
  5295   000B96  37A2               	rlcf	(___fladd@b+2)& (0+255),f,b
  5296   000B98  37A3               	rlcf	(___fladd@b+3)& (0+255),f,b
  5297   000B9A                     
  5298                           ; BSR set to: 0
  5299   000B9A  AFAF               	btfss	___fladd@grs& (0+255),7,b
  5300   000B9C  EFD2  F005         	goto	u2741
  5301   000BA0  EFD4  F005         	goto	u2740
  5302   000BA4                     u2741:
  5303   000BA4  EFD5  F005         	goto	l3001
  5304   000BA8                     u2740:
  5305   000BA8                     
  5306                           ; BSR set to: 0
  5307   000BA8  81A0               	bsf	___fladd@b& (0+255),0,b
  5308   000BAA                     l3001:
  5309                           
  5310                           ; BSR set to: 0
  5311   000BAA  A1AF               	btfss	___fladd@grs& (0+255),0,b
  5312   000BAC  EFDA  F005         	goto	u2751
  5313   000BB0  EFDC  F005         	goto	u2750
  5314   000BB4                     u2751:
  5315   000BB4  EFE0  F005         	goto	l3005
  5316   000BB8                     u2750:
  5317   000BB8                     
  5318                           ; BSR set to: 0
  5319   000BB8  80D8               	bsf	status,0,c
  5320   000BBA  37AF               	rlcf	___fladd@grs& (0+255),f,b
  5321   000BBC  EFE2  F005         	goto	l3007
  5322   000BC0                     l3005:
  5323                           
  5324                           ; BSR set to: 0
  5325   000BC0  90D8               	bcf	status,0,c
  5326   000BC2  37AF               	rlcf	___fladd@grs& (0+255),f,b
  5327   000BC4                     l3007:
  5328                           
  5329                           ; BSR set to: 0
  5330   000BC4  51AE               	movf	___fladd@bexp& (0+255),w,b
  5331   000BC6  B4D8               	btfsc	status,2,c
  5332   000BC8  EFE8  F005         	goto	u2761
  5333   000BCC  EFEA  F005         	goto	u2760
  5334   000BD0                     u2761:
  5335   000BD0  EFEB  F005         	goto	l3011
  5336   000BD4                     u2760:
  5337   000BD4                     
  5338                           ; BSR set to: 0
  5339   000BD4  07AE               	decf	___fladd@bexp& (0+255),f,b
  5340   000BD6                     l3011:
  5341                           
  5342                           ; BSR set to: 0
  5343   000BD6  AFA2               	btfss	(___fladd@b+2)& (0+255),7,b
  5344   000BD8  EFF0  F005         	goto	u2771
  5345   000BDC  EFF2  F005         	goto	u2770
  5346   000BE0                     u2771:
  5347   000BE0  EFC8  F005         	goto	l2995
  5348   000BE4                     u2770:
  5349   000BE4                     l3013:
  5350                           
  5351                           ; BSR set to: 0
  5352   000BE4  0E00               	movlw	0
  5353   000BE6  6FAD               	movwf	___fladd@aexp& (0+255),b
  5354   000BE8                     
  5355                           ; BSR set to: 0
  5356   000BE8  AFAF               	btfss	___fladd@grs& (0+255),7,b
  5357   000BEA  EFF9  F005         	goto	u2781
  5358   000BEE  EFFB  F005         	goto	u2780
  5359   000BF2                     u2781:
  5360   000BF2  EF13  F006         	goto	l738
  5361   000BF6                     u2780:
  5362   000BF6                     
  5363                           ; BSR set to: 0
  5364   000BF6  C0AF  F0A8         	movff	___fladd@grs,??___fladd
  5365   000BFA  0E7F               	movlw	127
  5366   000BFC  17A8               	andwf	??___fladd& (0+255),f,b
  5367   000BFE  B4D8               	btfsc	status,2,c
  5368   000C00  EF04  F006         	goto	u2791
  5369   000C04  EF06  F006         	goto	u2790
  5370   000C08                     u2791:
  5371   000C08  EF0A  F006         	goto	l739
  5372   000C0C                     u2790:
  5373   000C0C                     l3019:
  5374                           
  5375                           ; BSR set to: 0
  5376   000C0C  0E01               	movlw	1
  5377   000C0E  6FAD               	movwf	___fladd@aexp& (0+255),b
  5378   000C10  EF13  F006         	goto	l738
  5379   000C14                     l739:
  5380                           
  5381                           ; BSR set to: 0
  5382   000C14  A1A0               	btfss	___fladd@b& (0+255),0,b
  5383   000C16  EF0F  F006         	goto	u2801
  5384   000C1A  EF11  F006         	goto	u2800
  5385   000C1E                     u2801:
  5386   000C1E  EF13  F006         	goto	l738
  5387   000C22                     u2800:
  5388   000C22  EF06  F006         	goto	l3019
  5389   000C26                     l738:
  5390                           
  5391                           ; BSR set to: 0
  5392   000C26  51AD               	movf	___fladd@aexp& (0+255),w,b
  5393   000C28  B4D8               	btfsc	status,2,c
  5394   000C2A  EF19  F006         	goto	u2811
  5395   000C2E  EF1B  F006         	goto	u2810
  5396   000C32                     u2811:
  5397   000C32  EF46  F006         	goto	l3031
  5398   000C36                     u2810:
  5399   000C36                     
  5400                           ; BSR set to: 0
  5401   000C36  0E01               	movlw	1
  5402   000C38  27A0               	addwf	___fladd@b& (0+255),f,b
  5403   000C3A  0E00               	movlw	0
  5404   000C3C  23A1               	addwfc	(___fladd@b+1)& (0+255),f,b
  5405   000C3E  23A2               	addwfc	(___fladd@b+2)& (0+255),f,b
  5406   000C40  23A3               	addwfc	(___fladd@b+3)& (0+255),f,b
  5407   000C42                     
  5408                           ; BSR set to: 0
  5409   000C42  A1A3               	btfss	(___fladd@b+3)& (0+255),0,b
  5410   000C44  EF26  F006         	goto	u2821
  5411   000C48  EF28  F006         	goto	u2820
  5412   000C4C                     u2821:
  5413   000C4C  EF46  F006         	goto	l3031
  5414   000C50                     u2820:
  5415   000C50                     
  5416                           ; BSR set to: 0
  5417   000C50  C0A0  F0A8         	movff	___fladd@b,??___fladd
  5418   000C54  C0A1  F0A9         	movff	___fladd@b+1,??___fladd+1
  5419   000C58  C0A2  F0AA         	movff	___fladd@b+2,??___fladd+2
  5420   000C5C  C0A3  F0AB         	movff	___fladd@b+3,??___fladd+3
  5421   000C60  35AB               	rlcf	(??___fladd+3)& (0+255),w,b
  5422   000C62  33AB               	rrcf	(??___fladd+3)& (0+255),f,b
  5423   000C64  33AA               	rrcf	(??___fladd+2)& (0+255),f,b
  5424   000C66  33A9               	rrcf	(??___fladd+1)& (0+255),f,b
  5425   000C68  33A8               	rrcf	??___fladd& (0+255),f,b
  5426   000C6A  C0A8  F0A0         	movff	??___fladd,___fladd@b
  5427   000C6E  C0A9  F0A1         	movff	??___fladd+1,___fladd@b+1
  5428   000C72  C0AA  F0A2         	movff	??___fladd+2,___fladd@b+2
  5429   000C76  C0AB  F0A3         	movff	??___fladd+3,___fladd@b+3
  5430   000C7A  29AE               	incf	___fladd@bexp& (0+255),w,b
  5431   000C7C  B4D8               	btfsc	status,2,c
  5432   000C7E  EF43  F006         	goto	u2831
  5433   000C82  EF45  F006         	goto	u2830
  5434   000C86                     u2831:
  5435   000C86  EF46  F006         	goto	l3031
  5436   000C8A                     u2830:
  5437   000C8A                     
  5438                           ; BSR set to: 0
  5439   000C8A  2BAE               	incf	___fladd@bexp& (0+255),f,b
  5440   000C8C                     l3031:
  5441                           
  5442                           ; BSR set to: 0
  5443   000C8C  29AE               	incf	___fladd@bexp& (0+255),w,b
  5444   000C8E  B4D8               	btfsc	status,2,c
  5445   000C90  EF4C  F006         	goto	u2841
  5446   000C94  EF4E  F006         	goto	u2840
  5447   000C98                     u2841:
  5448   000C98  EF56  F006         	goto	l3035
  5449   000C9C                     u2840:
  5450   000C9C                     
  5451                           ; BSR set to: 0
  5452   000C9C  51AE               	movf	___fladd@bexp& (0+255),w,b
  5453   000C9E  A4D8               	btfss	status,2,c
  5454   000CA0  EF54  F006         	goto	u2851
  5455   000CA4  EF56  F006         	goto	u2850
  5456   000CA8                     u2851:
  5457   000CA8  EF68  F006         	goto	l3039
  5458   000CAC                     u2850:
  5459   000CAC                     l3035:
  5460                           
  5461                           ; BSR set to: 0
  5462   000CAC  0E00               	movlw	0
  5463   000CAE  6FA0               	movwf	___fladd@b& (0+255),b
  5464   000CB0  0E00               	movlw	0
  5465   000CB2  6FA1               	movwf	(___fladd@b+1)& (0+255),b
  5466   000CB4  0E00               	movlw	0
  5467   000CB6  6FA2               	movwf	(___fladd@b+2)& (0+255),b
  5468   000CB8  0E00               	movlw	0
  5469   000CBA  6FA3               	movwf	(___fladd@b+3)& (0+255),b
  5470   000CBC  51AE               	movf	___fladd@bexp& (0+255),w,b
  5471   000CBE  A4D8               	btfss	status,2,c
  5472   000CC0  EF64  F006         	goto	u2861
  5473   000CC4  EF66  F006         	goto	u2860
  5474   000CC8                     u2861:
  5475   000CC8  EF68  F006         	goto	l3039
  5476   000CCC                     u2860:
  5477   000CCC                     
  5478                           ; BSR set to: 0
  5479   000CCC  0E00               	movlw	0
  5480   000CCE  6FAC               	movwf	___fladd@signs& (0+255),b
  5481   000CD0                     l3039:
  5482                           
  5483                           ; BSR set to: 0
  5484   000CD0  A1AE               	btfss	___fladd@bexp& (0+255),0,b
  5485   000CD2  EF6D  F006         	goto	u2871
  5486   000CD6  EF6F  F006         	goto	u2870
  5487   000CDA                     u2871:
  5488   000CDA  EF72  F006         	goto	l3043
  5489   000CDE                     u2870:
  5490   000CDE                     
  5491                           ; BSR set to: 0
  5492   000CDE  8FA2               	bsf	(___fladd@b+2)& (0+255),7,b
  5493   000CE0  EF73  F006         	goto	l3045
  5494   000CE4                     l3043:
  5495                           
  5496                           ; BSR set to: 0
  5497   000CE4  9FA2               	bcf	(___fladd@b+2)& (0+255),7,b
  5498   000CE6                     l3045:
  5499                           
  5500                           ; BSR set to: 0
  5501   000CE6  90D8               	bcf	status,0,c
  5502   000CE8  31AE               	rrcf	___fladd@bexp& (0+255),w,b
  5503   000CEA  6FA3               	movwf	(___fladd@b+3)& (0+255),b
  5504   000CEC                     
  5505                           ; BSR set to: 0
  5506   000CEC  AFAC               	btfss	___fladd@signs& (0+255),7,b
  5507   000CEE  EF7B  F006         	goto	u2881
  5508   000CF2  EF7D  F006         	goto	u2880
  5509   000CF6                     u2881:
  5510   000CF6  EF7E  F006         	goto	l3051
  5511   000CFA                     u2880:
  5512   000CFA                     
  5513                           ; BSR set to: 0
  5514   000CFA  8FA3               	bsf	(___fladd@b+3)& (0+255),7,b
  5515   000CFC                     l3051:
  5516                           
  5517                           ; BSR set to: 0
  5518   000CFC  C0A0  F0A0         	movff	___fladd@b,?___fladd
  5519   000D00  C0A1  F0A1         	movff	___fladd@b+1,?___fladd+1
  5520   000D04  C0A2  F0A2         	movff	___fladd@b+2,?___fladd+2
  5521   000D08  C0A3  F0A3         	movff	___fladd@b+3,?___fladd+3
  5522   000D0C                     l721:
  5523                           
  5524                           ; BSR set to: 0
  5525   000D0C  0012               	return		;funcret
  5526   000D0E                     __end_of___fladd:
  5527                           	callstack 0
  5528                           
  5529 ;; *************** function _PWM_Duty *****************
  5530 ;; Defined at:
  5531 ;;		line 44 in file "PWM_LIB.c"
  5532 ;; Parameters:    Size  Location     Type
  5533 ;;  ciclo_t         4   90[BANK0 ] float 
  5534 ;; Auto vars:     Size  Location     Type
  5535 ;;  nuevoCiclo      2   96[BANK0 ] int 
  5536 ;; Return value:  Size  Location     Type
  5537 ;;                  1    wreg      void 
  5538 ;; Registers used:
  5539 ;;		wreg, status,2, status,0, prodl, prodh, cstack
  5540 ;; Tracked objects:
  5541 ;;		On entry : 0/0
  5542 ;;		On exit  : 0/0
  5543 ;;		Unchanged: 0/0
  5544 ;; Data sizes:     COMRAM   BANK0   BANK1   BANK2   BANK3   BANK4   BANK5   BANK6   BANK7
  5545 ;;      Params:         0       4       0       0       0       0       0       0       0
  5546 ;;      Locals:         0       2       0       0       0       0       0       0       0
  5547 ;;      Temps:          0       2       0       0       0       0       0       0       0
  5548 ;;      Totals:         0       8       0       0       0       0       0       0       0
  5549 ;;Total ram usage:        8 bytes
  5550 ;; Hardware stack levels used: 1
  5551 ;; Hardware stack levels required when called: 3
  5552 ;; This function calls:
  5553 ;;		___fldiv
  5554 ;;		___flmul
  5555 ;;		___fltol
  5556 ;;		___xxtofl
  5557 ;; This function is called by:
  5558 ;;		_main
  5559 ;; This function uses a non-reentrant model
  5560 ;;
  5561                           
  5562                           	psect	text24
  5563   00337A                     __ptext24:
  5564                           	callstack 0
  5565   00337A                     _PWM_Duty:
  5566                           	callstack 27
  5567   00337A                     
  5568                           ;PWM_LIB.c: 45:     int nuevoCiclo = (int)(reg10bits * ciclo_t / 500.0);
  5569   00337A  0E00               	movlw	0
  5570   00337C  0100               	movlb	0	; () banked
  5571   00337E  6F72               	movwf	___fldiv@a& (0+255),b
  5572   003380  0E00               	movlw	0
  5573   003382  6F73               	movwf	(___fldiv@a+1)& (0+255),b
  5574   003384  0EFA               	movlw	250
  5575   003386  6F74               	movwf	(___fldiv@a+2)& (0+255),b
  5576   003388  0E43               	movlw	67
  5577   00338A  6F75               	movwf	(___fldiv@a+3)& (0+255),b
  5578   00338C  C0BA  F08B         	movff	PWM_Duty@ciclo_t,___flmul@a
  5579   003390  C0BB  F08C         	movff	PWM_Duty@ciclo_t+1,___flmul@a+1
  5580   003394  C0BC  F08D         	movff	PWM_Duty@ciclo_t+2,___flmul@a+2
  5581   003398  C0BD  F08E         	movff	PWM_Duty@ciclo_t+3,___flmul@a+3
  5582   00339C  C0F4  F060         	movff	_reg10bits,___xxtofl@val
  5583   0033A0  C0F5  F061         	movff	_reg10bits+1,___xxtofl@val+1
  5584   0033A4  0E00               	movlw	0
  5585   0033A6  BF61               	btfsc	(___xxtofl@val+1)& (0+255),7,b
  5586   0033A8  0EFF               	movlw	-1
  5587   0033AA  6F62               	movwf	(___xxtofl@val+2)& (0+255),b
  5588   0033AC  6F63               	movwf	(___xxtofl@val+3)& (0+255),b
  5589   0033AE  0E01               	movlw	1
  5590   0033B0  ECE2  F011         	call	___xxtofl
  5591   0033B4  C060  F087         	movff	?___xxtofl,___flmul@b
  5592   0033B8  C061  F088         	movff	?___xxtofl+1,___flmul@b+1
  5593   0033BC  C062  F089         	movff	?___xxtofl+2,___flmul@b+2
  5594   0033C0  C063  F08A         	movff	?___xxtofl+3,___flmul@b+3
  5595   0033C4  EC87  F006         	call	___flmul	;wreg free
  5596   0033C8  C087  F06E         	movff	?___flmul,___fldiv@b
  5597   0033CC  C088  F06F         	movff	?___flmul+1,___fldiv@b+1
  5598   0033D0  C089  F070         	movff	?___flmul+2,___fldiv@b+2
  5599   0033D4  C08A  F071         	movff	?___flmul+3,___fldiv@b+3
  5600   0033D8  ECB2  F00A         	call	___fldiv	;wreg free
  5601   0033DC  C06E  F0B0         	movff	?___fldiv,___fltol@f1
  5602   0033E0  C06F  F0B1         	movff	?___fldiv+1,___fltol@f1+1
  5603   0033E4  C070  F0B2         	movff	?___fldiv+2,___fltol@f1+2
  5604   0033E8  C071  F0B3         	movff	?___fldiv+3,___fltol@f1+3
  5605   0033EC  EC50  F016         	call	___fltol	;wreg free
  5606   0033F0  C0B0  F0C0         	movff	?___fltol,PWM_Duty@nuevoCiclo
  5607   0033F4  C0B1  F0C1         	movff	?___fltol+1,PWM_Duty@nuevoCiclo+1
  5608   0033F8                     
  5609                           ;PWM_LIB.c: 46:     CCPR1L = (nuevoCiclo & 0b1111111100) >> 2;
  5610   0033F8  C0C0  F0BE         	movff	PWM_Duty@nuevoCiclo,??_PWM_Duty
  5611   0033FC  C0C1  F0BF         	movff	PWM_Duty@nuevoCiclo+1,??_PWM_Duty+1
  5612   003400  0100               	movlb	0	; () banked
  5613   003402  35BF               	rlcf	(??_PWM_Duty+1)& (0+255),w,b
  5614   003404  33BF               	rrcf	(??_PWM_Duty+1)& (0+255),f,b
  5615   003406  33BE               	rrcf	??_PWM_Duty& (0+255),f,b
  5616   003408  35BF               	rlcf	(??_PWM_Duty+1)& (0+255),w,b
  5617   00340A  33BF               	rrcf	(??_PWM_Duty+1)& (0+255),f,b
  5618   00340C  33BE               	rrcf	??_PWM_Duty& (0+255),f,b
  5619   00340E  51BE               	movf	??_PWM_Duty& (0+255),w,b
  5620   003410  6EBE               	movwf	190,c	;volatile
  5621   003412                     
  5622                           ; BSR set to: 0
  5623                           ;PWM_LIB.c: 47:     CCP1CONbits.DC1B = nuevoCiclo & 0b0000000011;
  5624   003412  C0C0  F0BE         	movff	PWM_Duty@nuevoCiclo,??_PWM_Duty
  5625   003416  0E03               	movlw	3
  5626   003418  17BE               	andwf	??_PWM_Duty& (0+255),f,b
  5627   00341A  3BBE               	swapf	??_PWM_Duty& (0+255),f,b
  5628   00341C  50BD               	movf	189,w,c	;volatile
  5629   00341E  19BE               	xorwf	??_PWM_Duty& (0+255),w,b
  5630   003420  0BCF               	andlw	-49
  5631   003422  19BE               	xorwf	??_PWM_Duty& (0+255),w,b
  5632   003424  6EBD               	movwf	189,c	;volatile
  5633   003426                     
  5634                           ; BSR set to: 0
  5635   003426  0012               	return		;funcret
  5636   003428                     __end_of_PWM_Duty:
  5637                           	callstack 0
  5638                           
  5639 ;; *************** function ___xxtofl *****************
  5640 ;; Defined at:
  5641 ;;		line 10 in file "C:\Program Files\Microchip\xc8\v2.40\pic\sources\c99\common\xxtofl.c"
  5642 ;; Parameters:    Size  Location     Type
  5643 ;;  sign            1    wreg     unsigned char 
  5644 ;;  val             4    0[BANK0 ] long 
  5645 ;; Auto vars:     Size  Location     Type
  5646 ;;  sign            1    8[BANK0 ] unsigned char 
  5647 ;;  arg             4   10[BANK0 ] unsigned long 
  5648 ;;  exp             1    9[BANK0 ] unsigned char 
  5649 ;; Return value:  Size  Location     Type
  5650 ;;                  4    0[BANK0 ] unsigned char 
  5651 ;; Registers used:
  5652 ;;		wreg, status,2, status,0
  5653 ;; Tracked objects:
  5654 ;;		On entry : 0/0
  5655 ;;		On exit  : 0/0
  5656 ;;		Unchanged: 0/0
  5657 ;; Data sizes:     COMRAM   BANK0   BANK1   BANK2   BANK3   BANK4   BANK5   BANK6   BANK7
  5658 ;;      Params:         0       4       0       0       0       0       0       0       0
  5659 ;;      Locals:         0       6       0       0       0       0       0       0       0
  5660 ;;      Temps:          0       4       0       0       0       0       0       0       0
  5661 ;;      Totals:         0      14       0       0       0       0       0       0       0
  5662 ;;Total ram usage:       14 bytes
  5663 ;; Hardware stack levels used: 1
  5664 ;; Hardware stack levels required when called: 2
  5665 ;; This function calls:
  5666 ;;		Nothing
  5667 ;; This function is called by:
  5668 ;;		_pid
  5669 ;;		_PWM_Init
  5670 ;;		_PWM_Duty
  5671 ;; This function uses a non-reentrant model
  5672 ;;
  5673                           
  5674                           	psect	text25
  5675   0023C4                     __ptext25:
  5676                           	callstack 0
  5677   0023C4                     ___xxtofl:
  5678                           	callstack 27
  5679                           
  5680                           ; BSR set to: 0
  5681                           ;incstack = 0
  5682                           ;___xxtofl@sign stored from wreg
  5683   0023C4  0100               	movlb	0	; () banked
  5684   0023C6  6F68               	movwf	___xxtofl@sign& (0+255),b
  5685   0023C8  0100               	movlb	0	; () banked
  5686   0023CA  5168               	movf	___xxtofl@sign& (0+255),w,b
  5687   0023CC  B4D8               	btfsc	status,2,c
  5688   0023CE  EFEB  F011         	goto	u3501
  5689   0023D2  EFED  F011         	goto	u3500
  5690   0023D6                     u3501:
  5691   0023D6  EF0F  F012         	goto	l839
  5692   0023DA                     u3500:
  5693   0023DA                     
  5694                           ; BSR set to: 0
  5695   0023DA  BF63               	btfsc	(___xxtofl@val+3)& (0+255),7,b
  5696   0023DC  EFF4  F011         	goto	u3510
  5697   0023E0  EFF2  F011         	goto	u3511
  5698   0023E4                     u3511:
  5699   0023E4  EF0F  F012         	goto	l839
  5700   0023E8                     u3510:
  5701   0023E8                     
  5702                           ; BSR set to: 0
  5703   0023E8  C060  F064         	movff	___xxtofl@val,??___xxtofl
  5704   0023EC  C061  F065         	movff	___xxtofl@val+1,??___xxtofl+1
  5705   0023F0  C062  F066         	movff	___xxtofl@val+2,??___xxtofl+2
  5706   0023F4  C063  F067         	movff	___xxtofl@val+3,??___xxtofl+3
  5707   0023F8  1F64               	comf	??___xxtofl& (0+255),f,b
  5708   0023FA  1F65               	comf	(??___xxtofl+1)& (0+255),f,b
  5709   0023FC  1F66               	comf	(??___xxtofl+2)& (0+255),f,b
  5710   0023FE  1F67               	comf	(??___xxtofl+3)& (0+255),f,b
  5711   002400  2B64               	incf	??___xxtofl& (0+255),f,b
  5712   002402  0E00               	movlw	0
  5713   002404  2365               	addwfc	(??___xxtofl+1)& (0+255),f,b
  5714   002406  2366               	addwfc	(??___xxtofl+2)& (0+255),f,b
  5715   002408  2367               	addwfc	(??___xxtofl+3)& (0+255),f,b
  5716   00240A  C064  F06A         	movff	??___xxtofl,___xxtofl@arg
  5717   00240E  C065  F06B         	movff	??___xxtofl+1,___xxtofl@arg+1
  5718   002412  C066  F06C         	movff	??___xxtofl+2,___xxtofl@arg+2
  5719   002416  C067  F06D         	movff	??___xxtofl+3,___xxtofl@arg+3
  5720   00241A  EF17  F012         	goto	l3499
  5721   00241E                     l839:
  5722                           
  5723                           ; BSR set to: 0
  5724   00241E  C060  F06A         	movff	___xxtofl@val,___xxtofl@arg
  5725   002422  C061  F06B         	movff	___xxtofl@val+1,___xxtofl@arg+1
  5726   002426  C062  F06C         	movff	___xxtofl@val+2,___xxtofl@arg+2
  5727   00242A  C063  F06D         	movff	___xxtofl@val+3,___xxtofl@arg+3
  5728   00242E                     l3499:
  5729                           
  5730                           ; BSR set to: 0
  5731   00242E  5160               	movf	___xxtofl@val& (0+255),w,b
  5732   002430  1161               	iorwf	(___xxtofl@val+1)& (0+255),w,b
  5733   002432  1162               	iorwf	(___xxtofl@val+2)& (0+255),w,b
  5734   002434  1163               	iorwf	(___xxtofl@val+3)& (0+255),w,b
  5735   002436  A4D8               	btfss	status,2,c
  5736   002438  EF20  F012         	goto	u3521
  5737   00243C  EF22  F012         	goto	u3520
  5738   002440                     u3521:
  5739   002440  EF2C  F012         	goto	l3505
  5740   002444                     u3520:
  5741   002444                     
  5742                           ; BSR set to: 0
  5743   002444  0E00               	movlw	0
  5744   002446  6F60               	movwf	?___xxtofl& (0+255),b
  5745   002448  0E00               	movlw	0
  5746   00244A  6F61               	movwf	(?___xxtofl+1)& (0+255),b
  5747   00244C  0E00               	movlw	0
  5748   00244E  6F62               	movwf	(?___xxtofl+2)& (0+255),b
  5749   002450  0E00               	movlw	0
  5750   002452  6F63               	movwf	(?___xxtofl+3)& (0+255),b
  5751   002454  EFBD  F012         	goto	l842
  5752   002458                     l3505:
  5753                           
  5754                           ; BSR set to: 0
  5755   002458  0E96               	movlw	150
  5756   00245A  6F69               	movwf	___xxtofl@exp& (0+255),b
  5757   00245C  EF36  F012         	goto	l3509
  5758   002460                     l3507:
  5759                           
  5760                           ; BSR set to: 0
  5761   002460  2B69               	incf	___xxtofl@exp& (0+255),f,b
  5762   002462  90D8               	bcf	status,0,c
  5763   002464  336D               	rrcf	(___xxtofl@arg+3)& (0+255),f,b
  5764   002466  336C               	rrcf	(___xxtofl@arg+2)& (0+255),f,b
  5765   002468  336B               	rrcf	(___xxtofl@arg+1)& (0+255),f,b
  5766   00246A  336A               	rrcf	___xxtofl@arg& (0+255),f,b
  5767   00246C                     l3509:
  5768                           
  5769                           ; BSR set to: 0
  5770   00246C  0E00               	movlw	0
  5771   00246E  156A               	andwf	___xxtofl@arg& (0+255),w,b
  5772   002470  6F64               	movwf	??___xxtofl& (0+255),b
  5773   002472  0E00               	movlw	0
  5774   002474  156B               	andwf	(___xxtofl@arg+1)& (0+255),w,b
  5775   002476  6F65               	movwf	(??___xxtofl+1)& (0+255),b
  5776   002478  0E00               	movlw	0
  5777   00247A  156C               	andwf	(___xxtofl@arg+2)& (0+255),w,b
  5778   00247C  6F66               	movwf	(??___xxtofl+2)& (0+255),b
  5779   00247E  0EFE               	movlw	254
  5780   002480  156D               	andwf	(___xxtofl@arg+3)& (0+255),w,b
  5781   002482  6F67               	movwf	(??___xxtofl+3)& (0+255),b
  5782   002484  5164               	movf	??___xxtofl& (0+255),w,b
  5783   002486  1165               	iorwf	(??___xxtofl+1)& (0+255),w,b
  5784   002488  1166               	iorwf	(??___xxtofl+2)& (0+255),w,b
  5785   00248A  1167               	iorwf	(??___xxtofl+3)& (0+255),w,b
  5786   00248C  A4D8               	btfss	status,2,c
  5787   00248E  EF4B  F012         	goto	u3531
  5788   002492  EF4D  F012         	goto	u3530
  5789   002496                     u3531:
  5790   002496  EF30  F012         	goto	l3507
  5791   00249A                     u3530:
  5792   00249A  EF5B  F012         	goto	l846
  5793   00249E                     l3511:
  5794                           
  5795                           ; BSR set to: 0
  5796   00249E  2B69               	incf	___xxtofl@exp& (0+255),f,b
  5797   0024A0                     
  5798                           ; BSR set to: 0
  5799   0024A0  0E01               	movlw	1
  5800   0024A2  276A               	addwf	___xxtofl@arg& (0+255),f,b
  5801   0024A4  0E00               	movlw	0
  5802   0024A6  236B               	addwfc	(___xxtofl@arg+1)& (0+255),f,b
  5803   0024A8  236C               	addwfc	(___xxtofl@arg+2)& (0+255),f,b
  5804   0024AA  236D               	addwfc	(___xxtofl@arg+3)& (0+255),f,b
  5805   0024AC                     
  5806                           ; BSR set to: 0
  5807   0024AC  90D8               	bcf	status,0,c
  5808   0024AE  336D               	rrcf	(___xxtofl@arg+3)& (0+255),f,b
  5809   0024B0  336C               	rrcf	(___xxtofl@arg+2)& (0+255),f,b
  5810   0024B2  336B               	rrcf	(___xxtofl@arg+1)& (0+255),f,b
  5811   0024B4  336A               	rrcf	___xxtofl@arg& (0+255),f,b
  5812   0024B6                     l846:
  5813                           
  5814                           ; BSR set to: 0
  5815   0024B6  0E00               	movlw	0
  5816   0024B8  156A               	andwf	___xxtofl@arg& (0+255),w,b
  5817   0024BA  6F64               	movwf	??___xxtofl& (0+255),b
  5818   0024BC  0E00               	movlw	0
  5819   0024BE  156B               	andwf	(___xxtofl@arg+1)& (0+255),w,b
  5820   0024C0  6F65               	movwf	(??___xxtofl+1)& (0+255),b
  5821   0024C2  0E00               	movlw	0
  5822   0024C4  156C               	andwf	(___xxtofl@arg+2)& (0+255),w,b
  5823   0024C6  6F66               	movwf	(??___xxtofl+2)& (0+255),b
  5824   0024C8  0EFF               	movlw	255
  5825   0024CA  156D               	andwf	(___xxtofl@arg+3)& (0+255),w,b
  5826   0024CC  6F67               	movwf	(??___xxtofl+3)& (0+255),b
  5827   0024CE  5164               	movf	??___xxtofl& (0+255),w,b
  5828   0024D0  1165               	iorwf	(??___xxtofl+1)& (0+255),w,b
  5829   0024D2  1166               	iorwf	(??___xxtofl+2)& (0+255),w,b
  5830   0024D4  1167               	iorwf	(??___xxtofl+3)& (0+255),w,b
  5831   0024D6  A4D8               	btfss	status,2,c
  5832   0024D8  EF70  F012         	goto	u3541
  5833   0024DC  EF72  F012         	goto	u3540
  5834   0024E0                     u3541:
  5835   0024E0  EF4F  F012         	goto	l3511
  5836   0024E4                     u3540:
  5837   0024E4  EF7A  F012         	goto	l3519
  5838   0024E8                     l3517:
  5839                           
  5840                           ; BSR set to: 0
  5841   0024E8  0769               	decf	___xxtofl@exp& (0+255),f,b
  5842   0024EA  90D8               	bcf	status,0,c
  5843   0024EC  376A               	rlcf	___xxtofl@arg& (0+255),f,b
  5844   0024EE  376B               	rlcf	(___xxtofl@arg+1)& (0+255),f,b
  5845   0024F0  376C               	rlcf	(___xxtofl@arg+2)& (0+255),f,b
  5846   0024F2  376D               	rlcf	(___xxtofl@arg+3)& (0+255),f,b
  5847   0024F4                     l3519:
  5848                           
  5849                           ; BSR set to: 0
  5850   0024F4  BF6C               	btfsc	(___xxtofl@arg+2)& (0+255),7,b
  5851   0024F6  EF7F  F012         	goto	u3551
  5852   0024FA  EF81  F012         	goto	u3550
  5853   0024FE                     u3551:
  5854   0024FE  EF89  F012         	goto	l853
  5855   002502                     u3550:
  5856   002502                     
  5857                           ; BSR set to: 0
  5858   002502  0E02               	movlw	2
  5859   002504  6169               	cpfslt	___xxtofl@exp& (0+255),b
  5860   002506  EF87  F012         	goto	u3561
  5861   00250A  EF89  F012         	goto	u3560
  5862   00250E                     u3561:
  5863   00250E  EF74  F012         	goto	l3517
  5864   002512                     u3560:
  5865   002512                     l853:
  5866                           
  5867                           ; BSR set to: 0
  5868   002512  B169               	btfsc	___xxtofl@exp& (0+255),0,b
  5869   002514  EF8E  F012         	goto	u3571
  5870   002518  EF90  F012         	goto	u3570
  5871   00251C                     u3571:
  5872   00251C  EF91  F012         	goto	l3525
  5873   002520                     u3570:
  5874   002520                     
  5875                           ; BSR set to: 0
  5876   002520  9F6C               	bcf	(___xxtofl@arg+2)& (0+255),7,b
  5877   002522                     l3525:
  5878                           
  5879                           ; BSR set to: 0
  5880   002522  90D8               	bcf	status,0,c
  5881   002524  3369               	rrcf	___xxtofl@exp& (0+255),f,b
  5882   002526                     
  5883                           ; BSR set to: 0
  5884   002526  C069  F064         	movff	___xxtofl@exp,??___xxtofl
  5885   00252A  6B65               	clrf	(??___xxtofl+1)& (0+255),b
  5886   00252C  6B66               	clrf	(??___xxtofl+2)& (0+255),b
  5887   00252E  6B67               	clrf	(??___xxtofl+3)& (0+255),b
  5888   002530  C064  F067         	movff	??___xxtofl,??___xxtofl+3
  5889   002534  6B66               	clrf	(??___xxtofl+2)& (0+255),b
  5890   002536  6B65               	clrf	(??___xxtofl+1)& (0+255),b
  5891   002538  6B64               	clrf	??___xxtofl& (0+255),b
  5892   00253A  5164               	movf	??___xxtofl& (0+255),w,b
  5893   00253C  136A               	iorwf	___xxtofl@arg& (0+255),f,b
  5894   00253E  5165               	movf	(??___xxtofl+1)& (0+255),w,b
  5895   002540  136B               	iorwf	(___xxtofl@arg+1)& (0+255),f,b
  5896   002542  5166               	movf	(??___xxtofl+2)& (0+255),w,b
  5897   002544  136C               	iorwf	(___xxtofl@arg+2)& (0+255),f,b
  5898   002546  5167               	movf	(??___xxtofl+3)& (0+255),w,b
  5899   002548  136D               	iorwf	(___xxtofl@arg+3)& (0+255),f,b
  5900   00254A                     
  5901                           ; BSR set to: 0
  5902   00254A  5168               	movf	___xxtofl@sign& (0+255),w,b
  5903   00254C  B4D8               	btfsc	status,2,c
  5904   00254E  EFAB  F012         	goto	u3581
  5905   002552  EFAD  F012         	goto	u3580
  5906   002556                     u3581:
  5907   002556  EFB5  F012         	goto	l3535
  5908   00255A                     u3580:
  5909   00255A                     
  5910                           ; BSR set to: 0
  5911   00255A  BF63               	btfsc	(___xxtofl@val+3)& (0+255),7,b
  5912   00255C  EFB4  F012         	goto	u3590
  5913   002560  EFB2  F012         	goto	u3591
  5914   002564                     u3591:
  5915   002564  EFB5  F012         	goto	l3535
  5916   002568                     u3590:
  5917   002568                     
  5918                           ; BSR set to: 0
  5919   002568  8F6D               	bsf	(___xxtofl@arg+3)& (0+255),7,b
  5920   00256A                     l3535:
  5921                           
  5922                           ; BSR set to: 0
  5923   00256A  C06A  F060         	movff	___xxtofl@arg,?___xxtofl
  5924   00256E  C06B  F061         	movff	___xxtofl@arg+1,?___xxtofl+1
  5925   002572  C06C  F062         	movff	___xxtofl@arg+2,?___xxtofl+2
  5926   002576  C06D  F063         	movff	___xxtofl@arg+3,?___xxtofl+3
  5927   00257A                     l842:
  5928                           
  5929                           ; BSR set to: 0
  5930   00257A  0012               	return		;funcret
  5931   00257C                     __end_of___xxtofl:
  5932                           	callstack 0
  5933                           
  5934 ;; *************** function ___fltol *****************
  5935 ;; Defined at:
  5936 ;;		line 43 in file "C:\Program Files\Microchip\xc8\v2.40\pic\sources\c99\common\fltol.c"
  5937 ;; Parameters:    Size  Location     Type
  5938 ;;  f1              4   80[BANK0 ] unsigned char 
  5939 ;; Auto vars:     Size  Location     Type
  5940 ;;  exp1            1   89[BANK0 ] unsigned char 
  5941 ;;  sign1           1   88[BANK0 ] unsigned char 
  5942 ;; Return value:  Size  Location     Type
  5943 ;;                  4   80[BANK0 ] long 
  5944 ;; Registers used:
  5945 ;;		wreg, status,2, status,0
  5946 ;; Tracked objects:
  5947 ;;		On entry : 0/0
  5948 ;;		On exit  : 0/0
  5949 ;;		Unchanged: 0/0
  5950 ;; Data sizes:     COMRAM   BANK0   BANK1   BANK2   BANK3   BANK4   BANK5   BANK6   BANK7
  5951 ;;      Params:         0       4       0       0       0       0       0       0       0
  5952 ;;      Locals:         0       2       0       0       0       0       0       0       0
  5953 ;;      Temps:          0       4       0       0       0       0       0       0       0
  5954 ;;      Totals:         0      10       0       0       0       0       0       0       0
  5955 ;;Total ram usage:       10 bytes
  5956 ;; Hardware stack levels used: 1
  5957 ;; Hardware stack levels required when called: 2
  5958 ;; This function calls:
  5959 ;;		Nothing
  5960 ;; This function is called by:
  5961 ;;		_PWM_Init
  5962 ;;		_PWM_Duty
  5963 ;; This function uses a non-reentrant model
  5964 ;;
  5965                           
  5966                           	psect	text26
  5967   002CA0                     __ptext26:
  5968                           	callstack 0
  5969   002CA0                     ___fltol:
  5970                           	callstack 27
  5971   002CA0  0100               	movlb	0	; () banked
  5972   002CA2  35B2               	rlcf	(___fltol@f1+2)& (0+255),w,b
  5973   002CA4  35B3               	rlcf	(___fltol@f1+3)& (0+255),w,b
  5974   002CA6  6FB9               	movwf	___fltol@exp1& (0+255),b
  5975   002CA8  51B9               	movf	___fltol@exp1& (0+255),w,b
  5976   002CAA  A4D8               	btfss	status,2,c
  5977   002CAC  EF5A  F016         	goto	u3431
  5978   002CB0  EF5C  F016         	goto	u3430
  5979   002CB4                     u3431:
  5980   002CB4  EF66  F016         	goto	l3455
  5981   002CB8                     u3430:
  5982   002CB8                     l3451:
  5983                           
  5984                           ; BSR set to: 0
  5985   002CB8  0E00               	movlw	0
  5986   002CBA  6FB0               	movwf	?___fltol& (0+255),b
  5987   002CBC  0E00               	movlw	0
  5988   002CBE  6FB1               	movwf	(?___fltol+1)& (0+255),b
  5989   002CC0  0E00               	movlw	0
  5990   002CC2  6FB2               	movwf	(?___fltol+2)& (0+255),b
  5991   002CC4  0E00               	movlw	0
  5992   002CC6  6FB3               	movwf	(?___fltol+3)& (0+255),b
  5993   002CC8  EFD3  F016         	goto	l481
  5994   002CCC                     l3455:
  5995                           
  5996                           ; BSR set to: 0
  5997   002CCC  C0B0  F0B4         	movff	___fltol@f1,??___fltol
  5998   002CD0  C0B1  F0B5         	movff	___fltol@f1+1,??___fltol+1
  5999   002CD4  C0B2  F0B6         	movff	___fltol@f1+2,??___fltol+2
  6000   002CD8  C0B3  F0B7         	movff	___fltol@f1+3,??___fltol+3
  6001   002CDC  0E20               	movlw	32
  6002   002CDE  EF76  F016         	goto	u3440
  6003   002CE2                     u3445:
  6004   002CE2  90D8               	bcf	status,0,c
  6005   002CE4  33B7               	rrcf	(??___fltol+3)& (0+255),f,b
  6006   002CE6  33B6               	rrcf	(??___fltol+2)& (0+255),f,b
  6007   002CE8  33B5               	rrcf	(??___fltol+1)& (0+255),f,b
  6008   002CEA  33B4               	rrcf	??___fltol& (0+255),f,b
  6009   002CEC                     u3440:
  6010   002CEC  2EE8               	decfsz	wreg,f,c
  6011   002CEE  EF71  F016         	goto	u3445
  6012   002CF2  51B4               	movf	??___fltol& (0+255),w,b
  6013   002CF4  6FB8               	movwf	___fltol@sign1& (0+255),b
  6014   002CF6                     
  6015                           ; BSR set to: 0
  6016   002CF6  8FB2               	bsf	(___fltol@f1+2)& (0+255),7,b
  6017   002CF8                     
  6018                           ; BSR set to: 0
  6019   002CF8  0EFF               	movlw	255
  6020   002CFA  17B0               	andwf	___fltol@f1& (0+255),f,b
  6021   002CFC  0EFF               	movlw	255
  6022   002CFE  17B1               	andwf	(___fltol@f1+1)& (0+255),f,b
  6023   002D00  0EFF               	movlw	255
  6024   002D02  17B2               	andwf	(___fltol@f1+2)& (0+255),f,b
  6025   002D04  0E00               	movlw	0
  6026   002D06  17B3               	andwf	(___fltol@f1+3)& (0+255),f,b
  6027   002D08                     
  6028                           ; BSR set to: 0
  6029   002D08  0E96               	movlw	150
  6030   002D0A  5FB9               	subwf	___fltol@exp1& (0+255),f,b
  6031   002D0C                     
  6032                           ; BSR set to: 0
  6033   002D0C  BFB9               	btfsc	___fltol@exp1& (0+255),7,b
  6034   002D0E  EF8D  F016         	goto	u3450
  6035   002D12  EF8B  F016         	goto	u3451
  6036   002D16                     u3451:
  6037   002D16  EFA3  F016         	goto	l3475
  6038   002D1A                     u3450:
  6039   002D1A                     
  6040                           ; BSR set to: 0
  6041   002D1A  51B9               	movf	___fltol@exp1& (0+255),w,b
  6042   002D1C  0A80               	xorlw	128
  6043   002D1E  0F97               	addlw	151
  6044   002D20  B0D8               	btfsc	status,0,c
  6045   002D22  EF95  F016         	goto	u3461
  6046   002D26  EF97  F016         	goto	u3460
  6047   002D2A                     u3461:
  6048   002D2A  EF99  F016         	goto	l3471
  6049   002D2E                     u3460:
  6050   002D2E  EF5C  F016         	goto	l3451
  6051   002D32                     l3471:
  6052                           
  6053                           ; BSR set to: 0
  6054   002D32  90D8               	bcf	status,0,c
  6055   002D34  33B3               	rrcf	(___fltol@f1+3)& (0+255),f,b
  6056   002D36  33B2               	rrcf	(___fltol@f1+2)& (0+255),f,b
  6057   002D38  33B1               	rrcf	(___fltol@f1+1)& (0+255),f,b
  6058   002D3A  33B0               	rrcf	___fltol@f1& (0+255),f,b
  6059   002D3C                     
  6060                           ; BSR set to: 0
  6061   002D3C  3FB9               	incfsz	___fltol@exp1& (0+255),f,b
  6062   002D3E  EF99  F016         	goto	l3471
  6063   002D42  EFBB  F016         	goto	l3485
  6064   002D46                     l3475:
  6065                           
  6066                           ; BSR set to: 0
  6067   002D46  0E1F               	movlw	31
  6068   002D48  65B9               	cpfsgt	___fltol@exp1& (0+255),b
  6069   002D4A  EFA9  F016         	goto	u3471
  6070   002D4E  EFAB  F016         	goto	u3470
  6071   002D52                     u3471:
  6072   002D52  EFB3  F016         	goto	l3483
  6073   002D56                     u3470:
  6074   002D56  EF5C  F016         	goto	l3451
  6075   002D5A                     l3481:
  6076                           
  6077                           ; BSR set to: 0
  6078   002D5A  90D8               	bcf	status,0,c
  6079   002D5C  37B0               	rlcf	___fltol@f1& (0+255),f,b
  6080   002D5E  37B1               	rlcf	(___fltol@f1+1)& (0+255),f,b
  6081   002D60  37B2               	rlcf	(___fltol@f1+2)& (0+255),f,b
  6082   002D62  37B3               	rlcf	(___fltol@f1+3)& (0+255),f,b
  6083   002D64  07B9               	decf	___fltol@exp1& (0+255),f,b
  6084   002D66                     l3483:
  6085                           
  6086                           ; BSR set to: 0
  6087   002D66  51B9               	movf	___fltol@exp1& (0+255),w,b
  6088   002D68  A4D8               	btfss	status,2,c
  6089   002D6A  EFB9  F016         	goto	u3481
  6090   002D6E  EFBB  F016         	goto	u3480
  6091   002D72                     u3481:
  6092   002D72  EFAD  F016         	goto	l3481
  6093   002D76                     u3480:
  6094   002D76                     l3485:
  6095                           
  6096                           ; BSR set to: 0
  6097   002D76  51B8               	movf	___fltol@sign1& (0+255),w,b
  6098   002D78  B4D8               	btfsc	status,2,c
  6099   002D7A  EFC1  F016         	goto	u3491
  6100   002D7E  EFC3  F016         	goto	u3490
  6101   002D82                     u3491:
  6102   002D82  EFCB  F016         	goto	l3489
  6103   002D86                     u3490:
  6104   002D86                     
  6105                           ; BSR set to: 0
  6106   002D86  1FB3               	comf	(___fltol@f1+3)& (0+255),f,b
  6107   002D88  1FB2               	comf	(___fltol@f1+2)& (0+255),f,b
  6108   002D8A  1FB1               	comf	(___fltol@f1+1)& (0+255),f,b
  6109   002D8C  6DB0               	negf	___fltol@f1& (0+255),b
  6110   002D8E  0E00               	movlw	0
  6111   002D90  23B1               	addwfc	(___fltol@f1+1)& (0+255),f,b
  6112   002D92  23B2               	addwfc	(___fltol@f1+2)& (0+255),f,b
  6113   002D94  23B3               	addwfc	(___fltol@f1+3)& (0+255),f,b
  6114   002D96                     l3489:
  6115                           
  6116                           ; BSR set to: 0
  6117   002D96  C0B0  F0B0         	movff	___fltol@f1,?___fltol
  6118   002D9A  C0B1  F0B1         	movff	___fltol@f1+1,?___fltol+1
  6119   002D9E  C0B2  F0B2         	movff	___fltol@f1+2,?___fltol+2
  6120   002DA2  C0B3  F0B3         	movff	___fltol@f1+3,?___fltol+3
  6121   002DA6                     l481:
  6122                           
  6123                           ; BSR set to: 0
  6124   002DA6  0012               	return		;funcret
  6125   002DA8                     __end_of___fltol:
  6126                           	callstack 0
  6127                           
  6128 ;; *************** function ___flmul *****************
  6129 ;; Defined at:
  6130 ;;		line 8 in file "C:\Program Files\Microchip\xc8\v2.40\pic\sources\c99\common\sprcmul.c"
  6131 ;; Parameters:    Size  Location     Type
  6132 ;;  b               4   39[BANK0 ] long 
  6133 ;;  a               4   43[BANK0 ] long 
  6134 ;; Auto vars:     Size  Location     Type
  6135 ;;  prod            4   58[BANK0 ] struct .
  6136 ;;  grs             4   52[BANK0 ] unsigned long 
  6137 ;;  temp            2   62[BANK0 ] struct .
  6138 ;;  bexp            1   57[BANK0 ] unsigned char 
  6139 ;;  aexp            1   56[BANK0 ] unsigned char 
  6140 ;;  sign            1   51[BANK0 ] unsigned char 
  6141 ;; Return value:  Size  Location     Type
  6142 ;;                  4   39[BANK0 ] unsigned char 
  6143 ;; Registers used:
  6144 ;;		wreg, status,2, status,0, prodl, prodh
  6145 ;; Tracked objects:
  6146 ;;		On entry : 0/0
  6147 ;;		On exit  : 0/0
  6148 ;;		Unchanged: 0/0
  6149 ;; Data sizes:     COMRAM   BANK0   BANK1   BANK2   BANK3   BANK4   BANK5   BANK6   BANK7
  6150 ;;      Params:         0       8       0       0       0       0       0       0       0
  6151 ;;      Locals:         0      13       0       0       0       0       0       0       0
  6152 ;;      Temps:          0       4       0       0       0       0       0       0       0
  6153 ;;      Totals:         0      25       0       0       0       0       0       0       0
  6154 ;;Total ram usage:       25 bytes
  6155 ;; Hardware stack levels used: 1
  6156 ;; Hardware stack levels required when called: 2
  6157 ;; This function calls:
  6158 ;;		Nothing
  6159 ;; This function is called by:
  6160 ;;		_pid
  6161 ;;		_PWM_Init
  6162 ;;		_PWM_Duty
  6163 ;; This function uses a non-reentrant model
  6164 ;;
  6165                           
  6166                           	psect	text27
  6167   000D0E                     __ptext27:
  6168                           	callstack 0
  6169   000D0E                     ___flmul:
  6170                           	callstack 27
  6171   000D0E  0100               	movlb	0	; () banked
  6172   000D10  518A               	movf	(___flmul@b+3)& (0+255),w,b
  6173   000D12  0B80               	andlw	128
  6174   000D14  6F93               	movwf	___flmul@sign& (0+255),b
  6175   000D16  518A               	movf	(___flmul@b+3)& (0+255),w,b
  6176   000D18  258A               	addwf	(___flmul@b+3)& (0+255),w,b
  6177   000D1A  6F99               	movwf	___flmul@bexp& (0+255),b
  6178   000D1C                     
  6179                           ; BSR set to: 0
  6180   000D1C  AF89               	btfss	(___flmul@b+2)& (0+255),7,b
  6181   000D1E  EF93  F006         	goto	u3191
  6182   000D22  EF95  F006         	goto	u3190
  6183   000D26                     u3191:
  6184   000D26  EF96  F006         	goto	l3297
  6185   000D2A                     u3190:
  6186   000D2A                     
  6187                           ; BSR set to: 0
  6188   000D2A  8199               	bsf	___flmul@bexp& (0+255),0,b
  6189   000D2C                     l3297:
  6190                           
  6191                           ; BSR set to: 0
  6192   000D2C  5199               	movf	___flmul@bexp& (0+255),w,b
  6193   000D2E  B4D8               	btfsc	status,2,c
  6194   000D30  EF9C  F006         	goto	u3201
  6195   000D34  EF9E  F006         	goto	u3200
  6196   000D38                     u3201:
  6197   000D38  EFB1  F006         	goto	l3305
  6198   000D3C                     u3200:
  6199   000D3C                     
  6200                           ; BSR set to: 0
  6201   000D3C  2999               	incf	___flmul@bexp& (0+255),w,b
  6202   000D3E  A4D8               	btfss	status,2,c
  6203   000D40  EFA4  F006         	goto	u3211
  6204   000D44  EFA6  F006         	goto	u3210
  6205   000D48                     u3211:
  6206   000D48  EFAE  F006         	goto	l3303
  6207   000D4C                     u3210:
  6208   000D4C                     
  6209                           ; BSR set to: 0
  6210   000D4C  0E00               	movlw	0
  6211   000D4E  6F87               	movwf	___flmul@b& (0+255),b
  6212   000D50  0E00               	movlw	0
  6213   000D52  6F88               	movwf	(___flmul@b+1)& (0+255),b
  6214   000D54  0E00               	movlw	0
  6215   000D56  6F89               	movwf	(___flmul@b+2)& (0+255),b
  6216   000D58  0E00               	movlw	0
  6217   000D5A  6F8A               	movwf	(___flmul@b+3)& (0+255),b
  6218   000D5C                     l3303:
  6219                           
  6220                           ; BSR set to: 0
  6221   000D5C  8F89               	bsf	(___flmul@b+2)& (0+255),7,b
  6222   000D5E  EFB9  F006         	goto	l3307
  6223   000D62                     l3305:
  6224                           
  6225                           ; BSR set to: 0
  6226   000D62  0E00               	movlw	0
  6227   000D64  6F87               	movwf	___flmul@b& (0+255),b
  6228   000D66  0E00               	movlw	0
  6229   000D68  6F88               	movwf	(___flmul@b+1)& (0+255),b
  6230   000D6A  0E00               	movlw	0
  6231   000D6C  6F89               	movwf	(___flmul@b+2)& (0+255),b
  6232   000D6E  0E00               	movlw	0
  6233   000D70  6F8A               	movwf	(___flmul@b+3)& (0+255),b
  6234   000D72                     l3307:
  6235                           
  6236                           ; BSR set to: 0
  6237   000D72  518E               	movf	(___flmul@a+3)& (0+255),w,b
  6238   000D74  0B80               	andlw	128
  6239   000D76  1B93               	xorwf	___flmul@sign& (0+255),f,b
  6240   000D78                     
  6241                           ; BSR set to: 0
  6242   000D78  518E               	movf	(___flmul@a+3)& (0+255),w,b
  6243   000D7A  258E               	addwf	(___flmul@a+3)& (0+255),w,b
  6244   000D7C  6F98               	movwf	___flmul@aexp& (0+255),b
  6245   000D7E                     
  6246                           ; BSR set to: 0
  6247   000D7E  AF8D               	btfss	(___flmul@a+2)& (0+255),7,b
  6248   000D80  EFC4  F006         	goto	u3221
  6249   000D84  EFC6  F006         	goto	u3220
  6250   000D88                     u3221:
  6251   000D88  EFC7  F006         	goto	l3315
  6252   000D8C                     u3220:
  6253   000D8C                     
  6254                           ; BSR set to: 0
  6255   000D8C  8198               	bsf	___flmul@aexp& (0+255),0,b
  6256   000D8E                     l3315:
  6257                           
  6258                           ; BSR set to: 0
  6259   000D8E  5198               	movf	___flmul@aexp& (0+255),w,b
  6260   000D90  B4D8               	btfsc	status,2,c
  6261   000D92  EFCD  F006         	goto	u3231
  6262   000D96  EFCF  F006         	goto	u3230
  6263   000D9A                     u3231:
  6264   000D9A  EFE2  F006         	goto	l3323
  6265   000D9E                     u3230:
  6266   000D9E                     
  6267                           ; BSR set to: 0
  6268   000D9E  2998               	incf	___flmul@aexp& (0+255),w,b
  6269   000DA0  A4D8               	btfss	status,2,c
  6270   000DA2  EFD5  F006         	goto	u3241
  6271   000DA6  EFD7  F006         	goto	u3240
  6272   000DAA                     u3241:
  6273   000DAA  EFDF  F006         	goto	l3321
  6274   000DAE                     u3240:
  6275   000DAE                     
  6276                           ; BSR set to: 0
  6277   000DAE  0E00               	movlw	0
  6278   000DB0  6F8B               	movwf	___flmul@a& (0+255),b
  6279   000DB2  0E00               	movlw	0
  6280   000DB4  6F8C               	movwf	(___flmul@a+1)& (0+255),b
  6281   000DB6  0E00               	movlw	0
  6282   000DB8  6F8D               	movwf	(___flmul@a+2)& (0+255),b
  6283   000DBA  0E00               	movlw	0
  6284   000DBC  6F8E               	movwf	(___flmul@a+3)& (0+255),b
  6285   000DBE                     l3321:
  6286                           
  6287                           ; BSR set to: 0
  6288   000DBE  8F8D               	bsf	(___flmul@a+2)& (0+255),7,b
  6289   000DC0  EFEA  F006         	goto	l798
  6290   000DC4                     l3323:
  6291                           
  6292                           ; BSR set to: 0
  6293   000DC4  0E00               	movlw	0
  6294   000DC6  6F8B               	movwf	___flmul@a& (0+255),b
  6295   000DC8  0E00               	movlw	0
  6296   000DCA  6F8C               	movwf	(___flmul@a+1)& (0+255),b
  6297   000DCC  0E00               	movlw	0
  6298   000DCE  6F8D               	movwf	(___flmul@a+2)& (0+255),b
  6299   000DD0  0E00               	movlw	0
  6300   000DD2  6F8E               	movwf	(___flmul@a+3)& (0+255),b
  6301   000DD4                     l798:
  6302                           
  6303                           ; BSR set to: 0
  6304   000DD4  5198               	movf	___flmul@aexp& (0+255),w,b
  6305   000DD6  B4D8               	btfsc	status,2,c
  6306   000DD8  EFF0  F006         	goto	u3251
  6307   000DDC  EFF2  F006         	goto	u3250
  6308   000DE0                     u3251:
  6309   000DE0  EFFA  F006         	goto	l3327
  6310   000DE4                     u3250:
  6311   000DE4                     
  6312                           ; BSR set to: 0
  6313   000DE4  5199               	movf	___flmul@bexp& (0+255),w,b
  6314   000DE6  A4D8               	btfss	status,2,c
  6315   000DE8  EFF8  F006         	goto	u3261
  6316   000DEC  EFFA  F006         	goto	u3260
  6317   000DF0                     u3261:
  6318   000DF0  EF04  F007         	goto	l3331
  6319   000DF4                     u3260:
  6320   000DF4                     l3327:
  6321                           
  6322                           ; BSR set to: 0
  6323   000DF4  0E00               	movlw	0
  6324   000DF6  6F87               	movwf	?___flmul& (0+255),b
  6325   000DF8  0E00               	movlw	0
  6326   000DFA  6F88               	movwf	(?___flmul+1)& (0+255),b
  6327   000DFC  0E00               	movlw	0
  6328   000DFE  6F89               	movwf	(?___flmul+2)& (0+255),b
  6329   000E00  0E00               	movlw	0
  6330   000E02  6F8A               	movwf	(?___flmul+3)& (0+255),b
  6331   000E04  EF9C  F008         	goto	l802
  6332   000E08                     l3331:
  6333                           
  6334                           ; BSR set to: 0
  6335   000E08  518D               	movf	(___flmul@a+2)& (0+255),w,b
  6336   000E0A  0387               	mulwf	___flmul@b& (0+255),b
  6337   000E0C  CFF3 F09E          	movff	prodl,___flmul@temp
  6338   000E10  CFF4 F09F          	movff	prodh,___flmul@temp+1
  6339   000E14                     
  6340                           ; BSR set to: 0
  6341   000E14  519E               	movf	___flmul@temp& (0+255),w,b
  6342   000E16  6F94               	movwf	___flmul@grs& (0+255),b
  6343   000E18  6B95               	clrf	(___flmul@grs+1)& (0+255),b
  6344   000E1A  6B96               	clrf	(___flmul@grs+2)& (0+255),b
  6345   000E1C  6B97               	clrf	(___flmul@grs+3)& (0+255),b
  6346   000E1E                     
  6347                           ; BSR set to: 0
  6348   000E1E  519F               	movf	(___flmul@temp+1)& (0+255),w,b
  6349   000E20  6F9A               	movwf	___flmul@prod& (0+255),b
  6350   000E22  6B9B               	clrf	(___flmul@prod+1)& (0+255),b
  6351   000E24  6B9C               	clrf	(___flmul@prod+2)& (0+255),b
  6352   000E26  6B9D               	clrf	(___flmul@prod+3)& (0+255),b
  6353   000E28  518C               	movf	(___flmul@a+1)& (0+255),w,b
  6354   000E2A  0388               	mulwf	(___flmul@b+1)& (0+255),b
  6355   000E2C  CFF3 F09E          	movff	prodl,___flmul@temp
  6356   000E30  CFF4 F09F          	movff	prodh,___flmul@temp+1
  6357   000E34                     
  6358                           ; BSR set to: 0
  6359   000E34  519E               	movf	___flmul@temp& (0+255),w,b
  6360   000E36  2794               	addwf	___flmul@grs& (0+255),f,b
  6361   000E38  0E00               	movlw	0
  6362   000E3A  2395               	addwfc	(___flmul@grs+1)& (0+255),f,b
  6363   000E3C  2396               	addwfc	(___flmul@grs+2)& (0+255),f,b
  6364   000E3E  2397               	addwfc	(___flmul@grs+3)& (0+255),f,b
  6365   000E40                     
  6366                           ; BSR set to: 0
  6367   000E40  519F               	movf	(___flmul@temp+1)& (0+255),w,b
  6368   000E42  279A               	addwf	___flmul@prod& (0+255),f,b
  6369   000E44  0E00               	movlw	0
  6370   000E46  239B               	addwfc	(___flmul@prod+1)& (0+255),f,b
  6371   000E48  239C               	addwfc	(___flmul@prod+2)& (0+255),f,b
  6372   000E4A  239D               	addwfc	(___flmul@prod+3)& (0+255),f,b
  6373   000E4C  518B               	movf	___flmul@a& (0+255),w,b
  6374   000E4E  0389               	mulwf	(___flmul@b+2)& (0+255),b
  6375   000E50  CFF3 F09E          	movff	prodl,___flmul@temp
  6376   000E54  CFF4 F09F          	movff	prodh,___flmul@temp+1
  6377   000E58                     
  6378                           ; BSR set to: 0
  6379   000E58  519E               	movf	___flmul@temp& (0+255),w,b
  6380   000E5A  2794               	addwf	___flmul@grs& (0+255),f,b
  6381   000E5C  0E00               	movlw	0
  6382   000E5E  2395               	addwfc	(___flmul@grs+1)& (0+255),f,b
  6383   000E60  2396               	addwfc	(___flmul@grs+2)& (0+255),f,b
  6384   000E62  2397               	addwfc	(___flmul@grs+3)& (0+255),f,b
  6385   000E64                     
  6386                           ; BSR set to: 0
  6387   000E64  519F               	movf	(___flmul@temp+1)& (0+255),w,b
  6388   000E66  279A               	addwf	___flmul@prod& (0+255),f,b
  6389   000E68  0E00               	movlw	0
  6390   000E6A  239B               	addwfc	(___flmul@prod+1)& (0+255),f,b
  6391   000E6C  239C               	addwfc	(___flmul@prod+2)& (0+255),f,b
  6392   000E6E  239D               	addwfc	(___flmul@prod+3)& (0+255),f,b
  6393   000E70                     
  6394                           ; BSR set to: 0
  6395   000E70  C096  F097         	movff	___flmul@grs+2,___flmul@grs+3
  6396   000E74  C095  F096         	movff	___flmul@grs+1,___flmul@grs+2
  6397   000E78  C094  F095         	movff	___flmul@grs,___flmul@grs+1
  6398   000E7C  6B94               	clrf	___flmul@grs& (0+255),b
  6399   000E7E                     
  6400                           ; BSR set to: 0
  6401   000E7E  518B               	movf	___flmul@a& (0+255),w,b
  6402   000E80  0388               	mulwf	(___flmul@b+1)& (0+255),b
  6403   000E82  CFF3 F09E          	movff	prodl,___flmul@temp
  6404   000E86  CFF4 F09F          	movff	prodh,___flmul@temp+1
  6405   000E8A                     
  6406                           ; BSR set to: 0
  6407   000E8A  519E               	movf	___flmul@temp& (0+255),w,b
  6408   000E8C  2794               	addwf	___flmul@grs& (0+255),f,b
  6409   000E8E  519F               	movf	(___flmul@temp+1)& (0+255),w,b
  6410   000E90  2395               	addwfc	(___flmul@grs+1)& (0+255),f,b
  6411   000E92  0E00               	movlw	0
  6412   000E94  2396               	addwfc	(___flmul@grs+2)& (0+255),f,b
  6413   000E96  0E00               	movlw	0
  6414   000E98  2397               	addwfc	(___flmul@grs+3)& (0+255),f,b
  6415   000E9A                     
  6416                           ; BSR set to: 0
  6417   000E9A  518C               	movf	(___flmul@a+1)& (0+255),w,b
  6418   000E9C  0387               	mulwf	___flmul@b& (0+255),b
  6419   000E9E  CFF3 F09E          	movff	prodl,___flmul@temp
  6420   000EA2  CFF4 F09F          	movff	prodh,___flmul@temp+1
  6421   000EA6                     
  6422                           ; BSR set to: 0
  6423   000EA6  519E               	movf	___flmul@temp& (0+255),w,b
  6424   000EA8  2794               	addwf	___flmul@grs& (0+255),f,b
  6425   000EAA  519F               	movf	(___flmul@temp+1)& (0+255),w,b
  6426   000EAC  2395               	addwfc	(___flmul@grs+1)& (0+255),f,b
  6427   000EAE  0E00               	movlw	0
  6428   000EB0  2396               	addwfc	(___flmul@grs+2)& (0+255),f,b
  6429   000EB2  0E00               	movlw	0
  6430   000EB4  2397               	addwfc	(___flmul@grs+3)& (0+255),f,b
  6431   000EB6                     
  6432                           ; BSR set to: 0
  6433   000EB6  C096  F097         	movff	___flmul@grs+2,___flmul@grs+3
  6434   000EBA  C095  F096         	movff	___flmul@grs+1,___flmul@grs+2
  6435   000EBE  C094  F095         	movff	___flmul@grs,___flmul@grs+1
  6436   000EC2  6B94               	clrf	___flmul@grs& (0+255),b
  6437   000EC4  518B               	movf	___flmul@a& (0+255),w,b
  6438   000EC6  0387               	mulwf	___flmul@b& (0+255),b
  6439   000EC8  CFF3 F09E          	movff	prodl,___flmul@temp
  6440   000ECC  CFF4 F09F          	movff	prodh,___flmul@temp+1
  6441   000ED0                     
  6442                           ; BSR set to: 0
  6443   000ED0  519E               	movf	___flmul@temp& (0+255),w,b
  6444   000ED2  2794               	addwf	___flmul@grs& (0+255),f,b
  6445   000ED4  519F               	movf	(___flmul@temp+1)& (0+255),w,b
  6446   000ED6  2395               	addwfc	(___flmul@grs+1)& (0+255),f,b
  6447   000ED8  0E00               	movlw	0
  6448   000EDA  2396               	addwfc	(___flmul@grs+2)& (0+255),f,b
  6449   000EDC  0E00               	movlw	0
  6450   000EDE  2397               	addwfc	(___flmul@grs+3)& (0+255),f,b
  6451   000EE0                     
  6452                           ; BSR set to: 0
  6453   000EE0  518D               	movf	(___flmul@a+2)& (0+255),w,b
  6454   000EE2  0388               	mulwf	(___flmul@b+1)& (0+255),b
  6455   000EE4  CFF3 F09E          	movff	prodl,___flmul@temp
  6456   000EE8  CFF4 F09F          	movff	prodh,___flmul@temp+1
  6457   000EEC  519E               	movf	___flmul@temp& (0+255),w,b
  6458   000EEE  279A               	addwf	___flmul@prod& (0+255),f,b
  6459   000EF0  519F               	movf	(___flmul@temp+1)& (0+255),w,b
  6460   000EF2  239B               	addwfc	(___flmul@prod+1)& (0+255),f,b
  6461   000EF4  0E00               	movlw	0
  6462   000EF6  239C               	addwfc	(___flmul@prod+2)& (0+255),f,b
  6463   000EF8  0E00               	movlw	0
  6464   000EFA  239D               	addwfc	(___flmul@prod+3)& (0+255),f,b
  6465   000EFC                     
  6466                           ; BSR set to: 0
  6467   000EFC  518C               	movf	(___flmul@a+1)& (0+255),w,b
  6468   000EFE  0389               	mulwf	(___flmul@b+2)& (0+255),b
  6469   000F00  CFF3 F09E          	movff	prodl,___flmul@temp
  6470   000F04  CFF4 F09F          	movff	prodh,___flmul@temp+1
  6471   000F08                     
  6472                           ; BSR set to: 0
  6473   000F08  519E               	movf	___flmul@temp& (0+255),w,b
  6474   000F0A  279A               	addwf	___flmul@prod& (0+255),f,b
  6475   000F0C  519F               	movf	(___flmul@temp+1)& (0+255),w,b
  6476   000F0E  239B               	addwfc	(___flmul@prod+1)& (0+255),f,b
  6477   000F10  0E00               	movlw	0
  6478   000F12  239C               	addwfc	(___flmul@prod+2)& (0+255),f,b
  6479   000F14  0E00               	movlw	0
  6480   000F16  239D               	addwfc	(___flmul@prod+3)& (0+255),f,b
  6481   000F18  518D               	movf	(___flmul@a+2)& (0+255),w,b
  6482   000F1A  0389               	mulwf	(___flmul@b+2)& (0+255),b
  6483   000F1C  CFF3 F09E          	movff	prodl,___flmul@temp
  6484   000F20  CFF4 F09F          	movff	prodh,___flmul@temp+1
  6485   000F24                     
  6486                           ; BSR set to: 0
  6487   000F24  519E               	movf	___flmul@temp& (0+255),w,b
  6488   000F26  6F8F               	movwf	??___flmul& (0+255),b
  6489   000F28  519F               	movf	(___flmul@temp+1)& (0+255),w,b
  6490   000F2A  6F90               	movwf	(??___flmul+1)& (0+255),b
  6491   000F2C  6B91               	clrf	(??___flmul+2)& (0+255),b
  6492   000F2E  6B92               	clrf	(??___flmul+3)& (0+255),b
  6493   000F30  C091  F092         	movff	??___flmul+2,??___flmul+3
  6494   000F34  C090  F091         	movff	??___flmul+1,??___flmul+2
  6495   000F38  C08F  F090         	movff	??___flmul,??___flmul+1
  6496   000F3C  6B8F               	clrf	??___flmul& (0+255),b
  6497   000F3E  518F               	movf	??___flmul& (0+255),w,b
  6498   000F40  279A               	addwf	___flmul@prod& (0+255),f,b
  6499   000F42  5190               	movf	(??___flmul+1)& (0+255),w,b
  6500   000F44  239B               	addwfc	(___flmul@prod+1)& (0+255),f,b
  6501   000F46  5191               	movf	(??___flmul+2)& (0+255),w,b
  6502   000F48  239C               	addwfc	(___flmul@prod+2)& (0+255),f,b
  6503   000F4A  5192               	movf	(??___flmul+3)& (0+255),w,b
  6504   000F4C  239D               	addwfc	(___flmul@prod+3)& (0+255),f,b
  6505   000F4E                     
  6506                           ; BSR set to: 0
  6507   000F4E  C094  F08F         	movff	___flmul@grs,??___flmul
  6508   000F52  C095  F090         	movff	___flmul@grs+1,??___flmul+1
  6509   000F56  C096  F091         	movff	___flmul@grs+2,??___flmul+2
  6510   000F5A  C097  F092         	movff	___flmul@grs+3,??___flmul+3
  6511   000F5E  0E19               	movlw	25
  6512   000F60  EFB7  F007         	goto	u3270
  6513   000F64                     u3275:
  6514   000F64  90D8               	bcf	status,0,c
  6515   000F66  3392               	rrcf	(??___flmul+3)& (0+255),f,b
  6516   000F68  3391               	rrcf	(??___flmul+2)& (0+255),f,b
  6517   000F6A  3390               	rrcf	(??___flmul+1)& (0+255),f,b
  6518   000F6C  338F               	rrcf	??___flmul& (0+255),f,b
  6519   000F6E                     u3270:
  6520   000F6E  2EE8               	decfsz	wreg,f,c
  6521   000F70  EFB2  F007         	goto	u3275
  6522   000F74  518F               	movf	??___flmul& (0+255),w,b
  6523   000F76  279A               	addwf	___flmul@prod& (0+255),f,b
  6524   000F78  5190               	movf	(??___flmul+1)& (0+255),w,b
  6525   000F7A  239B               	addwfc	(___flmul@prod+1)& (0+255),f,b
  6526   000F7C  5191               	movf	(??___flmul+2)& (0+255),w,b
  6527   000F7E  239C               	addwfc	(___flmul@prod+2)& (0+255),f,b
  6528   000F80  5192               	movf	(??___flmul+3)& (0+255),w,b
  6529   000F82  239D               	addwfc	(___flmul@prod+3)& (0+255),f,b
  6530   000F84                     
  6531                           ; BSR set to: 0
  6532   000F84  C096  F097         	movff	___flmul@grs+2,___flmul@grs+3
  6533   000F88  C095  F096         	movff	___flmul@grs+1,___flmul@grs+2
  6534   000F8C  C094  F095         	movff	___flmul@grs,___flmul@grs+1
  6535   000F90  6B94               	clrf	___flmul@grs& (0+255),b
  6536   000F92                     
  6537                           ; BSR set to: 0
  6538   000F92  5198               	movf	___flmul@aexp& (0+255),w,b
  6539   000F94  C099  F08F         	movff	___flmul@bexp,??___flmul
  6540   000F98  6B90               	clrf	(??___flmul+1)& (0+255),b
  6541   000F9A  278F               	addwf	??___flmul& (0+255),f,b
  6542   000F9C  0E00               	movlw	0
  6543   000F9E  2390               	addwfc	(??___flmul+1)& (0+255),f,b
  6544   000FA0  0E82               	movlw	130
  6545   000FA2  258F               	addwf	??___flmul& (0+255),w,b
  6546   000FA4  6F9E               	movwf	___flmul@temp& (0+255),b
  6547   000FA6  0EFF               	movlw	255
  6548   000FA8  2190               	addwfc	(??___flmul+1)& (0+255),w,b
  6549   000FAA  6F9F               	movwf	(___flmul@temp+1)& (0+255),b
  6550   000FAC  EFED  F007         	goto	l3379
  6551   000FB0                     l3373:
  6552                           
  6553                           ; BSR set to: 0
  6554   000FB0  90D8               	bcf	status,0,c
  6555   000FB2  379A               	rlcf	___flmul@prod& (0+255),f,b
  6556   000FB4  379B               	rlcf	(___flmul@prod+1)& (0+255),f,b
  6557   000FB6  379C               	rlcf	(___flmul@prod+2)& (0+255),f,b
  6558   000FB8  379D               	rlcf	(___flmul@prod+3)& (0+255),f,b
  6559   000FBA                     
  6560                           ; BSR set to: 0
  6561   000FBA  AF97               	btfss	(___flmul@grs+3)& (0+255),7,b
  6562   000FBC  EFE2  F007         	goto	u3281
  6563   000FC0  EFE4  F007         	goto	u3280
  6564   000FC4                     u3281:
  6565   000FC4  EFE5  F007         	goto	l805
  6566   000FC8                     u3280:
  6567   000FC8                     
  6568                           ; BSR set to: 0
  6569   000FC8  819A               	bsf	___flmul@prod& (0+255),0,b
  6570   000FCA                     l805:
  6571                           
  6572                           ; BSR set to: 0
  6573   000FCA  90D8               	bcf	status,0,c
  6574   000FCC  3794               	rlcf	___flmul@grs& (0+255),f,b
  6575   000FCE  3795               	rlcf	(___flmul@grs+1)& (0+255),f,b
  6576   000FD0  3796               	rlcf	(___flmul@grs+2)& (0+255),f,b
  6577   000FD2  3797               	rlcf	(___flmul@grs+3)& (0+255),f,b
  6578   000FD4  079E               	decf	___flmul@temp& (0+255),f,b
  6579   000FD6  A0D8               	btfss	status,0,c
  6580   000FD8  079F               	decf	(___flmul@temp+1)& (0+255),f,b
  6581   000FDA                     l3379:
  6582                           
  6583                           ; BSR set to: 0
  6584   000FDA  AF9C               	btfss	(___flmul@prod+2)& (0+255),7,b
  6585   000FDC  EFF2  F007         	goto	u3291
  6586   000FE0  EFF4  F007         	goto	u3290
  6587   000FE4                     u3291:
  6588   000FE4  EFD8  F007         	goto	l3373
  6589   000FE8                     u3290:
  6590   000FE8                     
  6591                           ; BSR set to: 0
  6592   000FE8  0E00               	movlw	0
  6593   000FEA  6F98               	movwf	___flmul@aexp& (0+255),b
  6594   000FEC                     
  6595                           ; BSR set to: 0
  6596   000FEC  AF97               	btfss	(___flmul@grs+3)& (0+255),7,b
  6597   000FEE  EFFB  F007         	goto	u3301
  6598   000FF2  EFFD  F007         	goto	u3300
  6599   000FF6                     u3301:
  6600   000FF6  EF21  F008         	goto	l807
  6601   000FFA                     u3300:
  6602   000FFA                     
  6603                           ; BSR set to: 0
  6604   000FFA  0EFF               	movlw	255
  6605   000FFC  1594               	andwf	___flmul@grs& (0+255),w,b
  6606   000FFE  6F8F               	movwf	??___flmul& (0+255),b
  6607   001000  0EFF               	movlw	255
  6608   001002  1595               	andwf	(___flmul@grs+1)& (0+255),w,b
  6609   001004  6F90               	movwf	(??___flmul+1)& (0+255),b
  6610   001006  0EFF               	movlw	255
  6611   001008  1596               	andwf	(___flmul@grs+2)& (0+255),w,b
  6612   00100A  6F91               	movwf	(??___flmul+2)& (0+255),b
  6613   00100C  0E7F               	movlw	127
  6614   00100E  1597               	andwf	(___flmul@grs+3)& (0+255),w,b
  6615   001010  6F92               	movwf	(??___flmul+3)& (0+255),b
  6616   001012  518F               	movf	??___flmul& (0+255),w,b
  6617   001014  1190               	iorwf	(??___flmul+1)& (0+255),w,b
  6618   001016  1191               	iorwf	(??___flmul+2)& (0+255),w,b
  6619   001018  1192               	iorwf	(??___flmul+3)& (0+255),w,b
  6620   00101A  B4D8               	btfsc	status,2,c
  6621   00101C  EF12  F008         	goto	u3311
  6622   001020  EF14  F008         	goto	u3310
  6623   001024                     u3311:
  6624   001024  EF18  F008         	goto	l808
  6625   001028                     u3310:
  6626   001028                     l3387:
  6627                           
  6628                           ; BSR set to: 0
  6629   001028  0E01               	movlw	1
  6630   00102A  6F98               	movwf	___flmul@aexp& (0+255),b
  6631   00102C  EF21  F008         	goto	l807
  6632   001030                     l808:
  6633                           
  6634                           ; BSR set to: 0
  6635   001030  A19A               	btfss	___flmul@prod& (0+255),0,b
  6636   001032  EF1D  F008         	goto	u3321
  6637   001036  EF1F  F008         	goto	u3320
  6638   00103A                     u3321:
  6639   00103A  EF21  F008         	goto	l807
  6640   00103E                     u3320:
  6641   00103E  EF14  F008         	goto	l3387
  6642   001042                     l807:
  6643                           
  6644                           ; BSR set to: 0
  6645   001042  5198               	movf	___flmul@aexp& (0+255),w,b
  6646   001044  B4D8               	btfsc	status,2,c
  6647   001046  EF27  F008         	goto	u3331
  6648   00104A  EF29  F008         	goto	u3330
  6649   00104E                     u3331:
  6650   00104E  EF4D  F008         	goto	l3399
  6651   001052                     u3330:
  6652   001052                     
  6653                           ; BSR set to: 0
  6654   001052  0E01               	movlw	1
  6655   001054  279A               	addwf	___flmul@prod& (0+255),f,b
  6656   001056  0E00               	movlw	0
  6657   001058  239B               	addwfc	(___flmul@prod+1)& (0+255),f,b
  6658   00105A  239C               	addwfc	(___flmul@prod+2)& (0+255),f,b
  6659   00105C  239D               	addwfc	(___flmul@prod+3)& (0+255),f,b
  6660   00105E                     
  6661                           ; BSR set to: 0
  6662   00105E  A19D               	btfss	(___flmul@prod+3)& (0+255),0,b
  6663   001060  EF34  F008         	goto	u3341
  6664   001064  EF36  F008         	goto	u3340
  6665   001068                     u3341:
  6666   001068  EF4D  F008         	goto	l3399
  6667   00106C                     u3340:
  6668   00106C                     
  6669                           ; BSR set to: 0
  6670   00106C  C09A  F08F         	movff	___flmul@prod,??___flmul
  6671   001070  C09B  F090         	movff	___flmul@prod+1,??___flmul+1
  6672   001074  C09C  F091         	movff	___flmul@prod+2,??___flmul+2
  6673   001078  C09D  F092         	movff	___flmul@prod+3,??___flmul+3
  6674   00107C  3592               	rlcf	(??___flmul+3)& (0+255),w,b
  6675   00107E  3392               	rrcf	(??___flmul+3)& (0+255),f,b
  6676   001080  3391               	rrcf	(??___flmul+2)& (0+255),f,b
  6677   001082  3390               	rrcf	(??___flmul+1)& (0+255),f,b
  6678   001084  338F               	rrcf	??___flmul& (0+255),f,b
  6679   001086  C08F  F09A         	movff	??___flmul,___flmul@prod
  6680   00108A  C090  F09B         	movff	??___flmul+1,___flmul@prod+1
  6681   00108E  C091  F09C         	movff	??___flmul+2,___flmul@prod+2
  6682   001092  C092  F09D         	movff	??___flmul+3,___flmul@prod+3
  6683   001096                     
  6684                           ; BSR set to: 0
  6685   001096  4B9E               	infsnz	___flmul@temp& (0+255),f,b
  6686   001098  2B9F               	incf	(___flmul@temp+1)& (0+255),f,b
  6687   00109A                     l3399:
  6688                           
  6689                           ; BSR set to: 0
  6690   00109A  BF9F               	btfsc	(___flmul@temp+1)& (0+255),7,b
  6691   00109C  EF58  F008         	goto	u3351
  6692   0010A0  519F               	movf	(___flmul@temp+1)& (0+255),w,b
  6693   0010A2  E108               	bnz	u3350
  6694   0010A4  299E               	incf	___flmul@temp& (0+255),w,b
  6695   0010A6  A0D8               	btfss	status,0,c
  6696   0010A8  EF58  F008         	goto	u3351
  6697   0010AC  EF5A  F008         	goto	u3350
  6698   0010B0                     u3351:
  6699   0010B0  EF64  F008         	goto	l3403
  6700   0010B4                     u3350:
  6701   0010B4                     
  6702                           ; BSR set to: 0
  6703   0010B4  0E00               	movlw	0
  6704   0010B6  6F9A               	movwf	___flmul@prod& (0+255),b
  6705   0010B8  0E00               	movlw	0
  6706   0010BA  6F9B               	movwf	(___flmul@prod+1)& (0+255),b
  6707   0010BC  0E80               	movlw	128
  6708   0010BE  6F9C               	movwf	(___flmul@prod+2)& (0+255),b
  6709   0010C0  0E7F               	movlw	127
  6710   0010C2  6F9D               	movwf	(___flmul@prod+3)& (0+255),b
  6711   0010C4  EF92  F008         	goto	l3415
  6712   0010C8                     l3403:
  6713                           
  6714                           ; BSR set to: 0
  6715   0010C8  BF9F               	btfsc	(___flmul@temp+1)& (0+255),7,b
  6716   0010CA  EF71  F008         	goto	u3360
  6717   0010CE  519F               	movf	(___flmul@temp+1)& (0+255),w,b
  6718   0010D0  E106               	bnz	u3361
  6719   0010D2  059E               	decf	___flmul@temp& (0+255),w,b
  6720   0010D4  B0D8               	btfsc	status,0,c
  6721   0010D6  EF6F  F008         	goto	u3361
  6722   0010DA  EF71  F008         	goto	u3360
  6723   0010DE                     u3361:
  6724   0010DE  EF7D  F008         	goto	l815
  6725   0010E2                     u3360:
  6726   0010E2                     
  6727                           ; BSR set to: 0
  6728   0010E2  0E00               	movlw	0
  6729   0010E4  6F9A               	movwf	___flmul@prod& (0+255),b
  6730   0010E6  0E00               	movlw	0
  6731   0010E8  6F9B               	movwf	(___flmul@prod+1)& (0+255),b
  6732   0010EA  0E00               	movlw	0
  6733   0010EC  6F9C               	movwf	(___flmul@prod+2)& (0+255),b
  6734   0010EE  0E00               	movlw	0
  6735   0010F0  6F9D               	movwf	(___flmul@prod+3)& (0+255),b
  6736   0010F2  0E00               	movlw	0
  6737   0010F4  6F93               	movwf	___flmul@sign& (0+255),b
  6738   0010F6  EF92  F008         	goto	l3415
  6739   0010FA                     l815:
  6740                           
  6741                           ; BSR set to: 0
  6742   0010FA  C09E  F099         	movff	___flmul@temp,___flmul@bexp
  6743   0010FE                     
  6744                           ; BSR set to: 0
  6745   0010FE  0EFF               	movlw	255
  6746   001100  179A               	andwf	___flmul@prod& (0+255),f,b
  6747   001102  0EFF               	movlw	255
  6748   001104  179B               	andwf	(___flmul@prod+1)& (0+255),f,b
  6749   001106  0E7F               	movlw	127
  6750   001108  179C               	andwf	(___flmul@prod+2)& (0+255),f,b
  6751   00110A  0E00               	movlw	0
  6752   00110C  179D               	andwf	(___flmul@prod+3)& (0+255),f,b
  6753   00110E                     
  6754                           ; BSR set to: 0
  6755   00110E  A199               	btfss	___flmul@bexp& (0+255),0,b
  6756   001110  EF8C  F008         	goto	u3371
  6757   001114  EF8E  F008         	goto	u3370
  6758   001118                     u3371:
  6759   001118  EF8F  F008         	goto	l3413
  6760   00111C                     u3370:
  6761   00111C                     
  6762                           ; BSR set to: 0
  6763   00111C  8F9C               	bsf	(___flmul@prod+2)& (0+255),7,b
  6764   00111E                     l3413:
  6765                           
  6766                           ; BSR set to: 0
  6767   00111E  90D8               	bcf	status,0,c
  6768   001120  3199               	rrcf	___flmul@bexp& (0+255),w,b
  6769   001122  6F9D               	movwf	(___flmul@prod+3)& (0+255),b
  6770   001124                     l3415:
  6771                           
  6772                           ; BSR set to: 0
  6773   001124  5193               	movf	___flmul@sign& (0+255),w,b
  6774   001126  139D               	iorwf	(___flmul@prod+3)& (0+255),f,b
  6775   001128                     
  6776                           ; BSR set to: 0
  6777   001128  C09A  F087         	movff	___flmul@prod,?___flmul
  6778   00112C  C09B  F088         	movff	___flmul@prod+1,?___flmul+1
  6779   001130  C09C  F089         	movff	___flmul@prod+2,?___flmul+2
  6780   001134  C09D  F08A         	movff	___flmul@prod+3,?___flmul+3
  6781   001138                     l802:
  6782                           
  6783                           ; BSR set to: 0
  6784   001138  0012               	return		;funcret
  6785   00113A                     __end_of___flmul:
  6786                           	callstack 0
  6787                           
  6788 ;; *************** function ___fldiv *****************
  6789 ;; Defined at:
  6790 ;;		line 11 in file "C:\Program Files\Microchip\xc8\v2.40\pic\sources\c99\common\sprcdiv.c"
  6791 ;; Parameters:    Size  Location     Type
  6792 ;;  b               4   14[BANK0 ] unsigned char 
  6793 ;;  a               4   18[BANK0 ] unsigned char 
  6794 ;; Auto vars:     Size  Location     Type
  6795 ;;  grs             4   33[BANK0 ] unsigned long 
  6796 ;;  rem             4   26[BANK0 ] unsigned long 
  6797 ;;  new_exp         2   31[BANK0 ] short 
  6798 ;;  aexp            1   38[BANK0 ] unsigned char 
  6799 ;;  bexp            1   37[BANK0 ] unsigned char 
  6800 ;;  sign            1   30[BANK0 ] unsigned char 
  6801 ;; Return value:  Size  Location     Type
  6802 ;;                  4   14[BANK0 ] unsigned char 
  6803 ;; Registers used:
  6804 ;;		wreg, status,2, status,0
  6805 ;; Tracked objects:
  6806 ;;		On entry : 0/0
  6807 ;;		On exit  : 0/0
  6808 ;;		Unchanged: 0/0
  6809 ;; Data sizes:     COMRAM   BANK0   BANK1   BANK2   BANK3   BANK4   BANK5   BANK6   BANK7
  6810 ;;      Params:         0       8       0       0       0       0       0       0       0
  6811 ;;      Locals:         0      13       0       0       0       0       0       0       0
  6812 ;;      Temps:          0       4       0       0       0       0       0       0       0
  6813 ;;      Totals:         0      25       0       0       0       0       0       0       0
  6814 ;;Total ram usage:       25 bytes
  6815 ;; Hardware stack levels used: 1
  6816 ;; Hardware stack levels required when called: 2
  6817 ;; This function calls:
  6818 ;;		Nothing
  6819 ;; This function is called by:
  6820 ;;		_pid
  6821 ;;		_PWM_Init
  6822 ;;		_PWM_Duty
  6823 ;; This function uses a non-reentrant model
  6824 ;;
  6825                           
  6826                           	psect	text28
  6827   001564                     __ptext28:
  6828                           	callstack 0
  6829   001564                     ___fldiv:
  6830                           	callstack 27
  6831   001564  0100               	movlb	0	; () banked
  6832   001566  5171               	movf	(___fldiv@b+3)& (0+255),w,b
  6833   001568  0B80               	andlw	128
  6834   00156A  6F7E               	movwf	___fldiv@sign& (0+255),b
  6835   00156C  5171               	movf	(___fldiv@b+3)& (0+255),w,b
  6836   00156E  2571               	addwf	(___fldiv@b+3)& (0+255),w,b
  6837   001570  6F85               	movwf	___fldiv@bexp& (0+255),b
  6838   001572                     
  6839                           ; BSR set to: 0
  6840   001572  AF70               	btfss	(___fldiv@b+2)& (0+255),7,b
  6841   001574  EFBE  F00A         	goto	u2961
  6842   001578  EFC0  F00A         	goto	u2960
  6843   00157C                     u2961:
  6844   00157C  EFC1  F00A         	goto	l3159
  6845   001580                     u2960:
  6846   001580                     
  6847                           ; BSR set to: 0
  6848   001580  8185               	bsf	___fldiv@bexp& (0+255),0,b
  6849   001582                     l3159:
  6850                           
  6851                           ; BSR set to: 0
  6852   001582  5185               	movf	___fldiv@bexp& (0+255),w,b
  6853   001584  B4D8               	btfsc	status,2,c
  6854   001586  EFC7  F00A         	goto	u2971
  6855   00158A  EFC9  F00A         	goto	u2970
  6856   00158E                     u2971:
  6857   00158E  EFDE  F00A         	goto	l3169
  6858   001592                     u2970:
  6859   001592                     
  6860                           ; BSR set to: 0
  6861   001592  2985               	incf	___fldiv@bexp& (0+255),w,b
  6862   001594  A4D8               	btfss	status,2,c
  6863   001596  EFCF  F00A         	goto	u2981
  6864   00159A  EFD1  F00A         	goto	u2980
  6865   00159E                     u2981:
  6866   00159E  EFD9  F00A         	goto	l3165
  6867   0015A2                     u2980:
  6868   0015A2                     
  6869                           ; BSR set to: 0
  6870   0015A2  0E00               	movlw	0
  6871   0015A4  6F6E               	movwf	___fldiv@b& (0+255),b
  6872   0015A6  0E00               	movlw	0
  6873   0015A8  6F6F               	movwf	(___fldiv@b+1)& (0+255),b
  6874   0015AA  0E00               	movlw	0
  6875   0015AC  6F70               	movwf	(___fldiv@b+2)& (0+255),b
  6876   0015AE  0E00               	movlw	0
  6877   0015B0  6F71               	movwf	(___fldiv@b+3)& (0+255),b
  6878   0015B2                     l3165:
  6879                           
  6880                           ; BSR set to: 0
  6881   0015B2  8F70               	bsf	(___fldiv@b+2)& (0+255),7,b
  6882   0015B4                     
  6883                           ; BSR set to: 0
  6884   0015B4  0E00               	movlw	0
  6885   0015B6  6F71               	movwf	(___fldiv@b+3)& (0+255),b
  6886   0015B8  EFE6  F00A         	goto	l3171
  6887   0015BC                     l3169:
  6888                           
  6889                           ; BSR set to: 0
  6890   0015BC  0E00               	movlw	0
  6891   0015BE  6F6E               	movwf	___fldiv@b& (0+255),b
  6892   0015C0  0E00               	movlw	0
  6893   0015C2  6F6F               	movwf	(___fldiv@b+1)& (0+255),b
  6894   0015C4  0E00               	movlw	0
  6895   0015C6  6F70               	movwf	(___fldiv@b+2)& (0+255),b
  6896   0015C8  0E00               	movlw	0
  6897   0015CA  6F71               	movwf	(___fldiv@b+3)& (0+255),b
  6898   0015CC                     l3171:
  6899                           
  6900                           ; BSR set to: 0
  6901   0015CC  5175               	movf	(___fldiv@a+3)& (0+255),w,b
  6902   0015CE  0B80               	andlw	128
  6903   0015D0  1B7E               	xorwf	___fldiv@sign& (0+255),f,b
  6904   0015D2                     
  6905                           ; BSR set to: 0
  6906   0015D2  5175               	movf	(___fldiv@a+3)& (0+255),w,b
  6907   0015D4  2575               	addwf	(___fldiv@a+3)& (0+255),w,b
  6908   0015D6  6F86               	movwf	___fldiv@aexp& (0+255),b
  6909   0015D8                     
  6910                           ; BSR set to: 0
  6911   0015D8  AF74               	btfss	(___fldiv@a+2)& (0+255),7,b
  6912   0015DA  EFF1  F00A         	goto	u2991
  6913   0015DE  EFF3  F00A         	goto	u2990
  6914   0015E2                     u2991:
  6915   0015E2  EFF4  F00A         	goto	l3179
  6916   0015E6                     u2990:
  6917   0015E6                     
  6918                           ; BSR set to: 0
  6919   0015E6  8186               	bsf	___fldiv@aexp& (0+255),0,b
  6920   0015E8                     l3179:
  6921                           
  6922                           ; BSR set to: 0
  6923   0015E8  5186               	movf	___fldiv@aexp& (0+255),w,b
  6924   0015EA  B4D8               	btfsc	status,2,c
  6925   0015EC  EFFA  F00A         	goto	u3001
  6926   0015F0  EFFC  F00A         	goto	u3000
  6927   0015F4                     u3001:
  6928   0015F4  EF11  F00B         	goto	l3189
  6929   0015F8                     u3000:
  6930   0015F8                     
  6931                           ; BSR set to: 0
  6932   0015F8  2986               	incf	___fldiv@aexp& (0+255),w,b
  6933   0015FA  A4D8               	btfss	status,2,c
  6934   0015FC  EF02  F00B         	goto	u3011
  6935   001600  EF04  F00B         	goto	u3010
  6936   001604                     u3011:
  6937   001604  EF0C  F00B         	goto	l3185
  6938   001608                     u3010:
  6939   001608                     
  6940                           ; BSR set to: 0
  6941   001608  0E00               	movlw	0
  6942   00160A  6F72               	movwf	___fldiv@a& (0+255),b
  6943   00160C  0E00               	movlw	0
  6944   00160E  6F73               	movwf	(___fldiv@a+1)& (0+255),b
  6945   001610  0E00               	movlw	0
  6946   001612  6F74               	movwf	(___fldiv@a+2)& (0+255),b
  6947   001614  0E00               	movlw	0
  6948   001616  6F75               	movwf	(___fldiv@a+3)& (0+255),b
  6949   001618                     l3185:
  6950                           
  6951                           ; BSR set to: 0
  6952   001618  8F74               	bsf	(___fldiv@a+2)& (0+255),7,b
  6953   00161A                     
  6954                           ; BSR set to: 0
  6955   00161A  0E00               	movlw	0
  6956   00161C  6F75               	movwf	(___fldiv@a+3)& (0+255),b
  6957   00161E  EF19  F00B         	goto	l3191
  6958   001622                     l3189:
  6959                           
  6960                           ; BSR set to: 0
  6961   001622  0E00               	movlw	0
  6962   001624  6F72               	movwf	___fldiv@a& (0+255),b
  6963   001626  0E00               	movlw	0
  6964   001628  6F73               	movwf	(___fldiv@a+1)& (0+255),b
  6965   00162A  0E00               	movlw	0
  6966   00162C  6F74               	movwf	(___fldiv@a+2)& (0+255),b
  6967   00162E  0E00               	movlw	0
  6968   001630  6F75               	movwf	(___fldiv@a+3)& (0+255),b
  6969   001632                     l3191:
  6970                           
  6971                           ; BSR set to: 0
  6972   001632  5172               	movf	___fldiv@a& (0+255),w,b
  6973   001634  1173               	iorwf	(___fldiv@a+1)& (0+255),w,b
  6974   001636  1174               	iorwf	(___fldiv@a+2)& (0+255),w,b
  6975   001638  1175               	iorwf	(___fldiv@a+3)& (0+255),w,b
  6976   00163A  A4D8               	btfss	status,2,c
  6977   00163C  EF22  F00B         	goto	u3021
  6978   001640  EF24  F00B         	goto	u3020
  6979   001644                     u3021:
  6980   001644  EF3C  F00B         	goto	l3203
  6981   001648                     u3020:
  6982   001648                     
  6983                           ; BSR set to: 0
  6984   001648  0E00               	movlw	0
  6985   00164A  6F6E               	movwf	___fldiv@b& (0+255),b
  6986   00164C  0E00               	movlw	0
  6987   00164E  6F6F               	movwf	(___fldiv@b+1)& (0+255),b
  6988   001650  0E00               	movlw	0
  6989   001652  6F70               	movwf	(___fldiv@b+2)& (0+255),b
  6990   001654  0E00               	movlw	0
  6991   001656  6F71               	movwf	(___fldiv@b+3)& (0+255),b
  6992   001658                     
  6993                           ; BSR set to: 0
  6994   001658  0E80               	movlw	128
  6995   00165A  1370               	iorwf	(___fldiv@b+2)& (0+255),f,b
  6996   00165C  0E7F               	movlw	127
  6997   00165E  1371               	iorwf	(___fldiv@b+3)& (0+255),f,b
  6998   001660                     l3197:
  6999                           
  7000                           ; BSR set to: 0
  7001   001660  517E               	movf	___fldiv@sign& (0+255),w,b
  7002   001662  1371               	iorwf	(___fldiv@b+3)& (0+255),f,b
  7003   001664                     
  7004                           ; BSR set to: 0
  7005   001664  C06E  F06E         	movff	___fldiv@b,?___fldiv
  7006   001668  C06F  F06F         	movff	___fldiv@b+1,?___fldiv+1
  7007   00166C  C070  F070         	movff	___fldiv@b+2,?___fldiv+2
  7008   001670  C071  F071         	movff	___fldiv@b+3,?___fldiv+3
  7009   001674  EF7F  F00C         	goto	l766
  7010   001678                     l3203:
  7011                           
  7012                           ; BSR set to: 0
  7013   001678  5185               	movf	___fldiv@bexp& (0+255),w,b
  7014   00167A  A4D8               	btfss	status,2,c
  7015   00167C  EF42  F00B         	goto	u3031
  7016   001680  EF44  F00B         	goto	u3030
  7017   001684                     u3031:
  7018   001684  EF4E  F00B         	goto	l3211
  7019   001688                     u3030:
  7020   001688                     
  7021                           ; BSR set to: 0
  7022   001688  0E00               	movlw	0
  7023   00168A  6F6E               	movwf	?___fldiv& (0+255),b
  7024   00168C  0E00               	movlw	0
  7025   00168E  6F6F               	movwf	(?___fldiv+1)& (0+255),b
  7026   001690  0E00               	movlw	0
  7027   001692  6F70               	movwf	(?___fldiv+2)& (0+255),b
  7028   001694  0E00               	movlw	0
  7029   001696  6F71               	movwf	(?___fldiv+3)& (0+255),b
  7030   001698  EF7F  F00C         	goto	l766
  7031   00169C                     l3211:
  7032                           
  7033                           ; BSR set to: 0
  7034   00169C  5186               	movf	___fldiv@aexp& (0+255),w,b
  7035   00169E  C085  F076         	movff	___fldiv@bexp,??___fldiv
  7036   0016A2  6B77               	clrf	(??___fldiv+1)& (0+255),b
  7037   0016A4  5F76               	subwf	??___fldiv& (0+255),f,b
  7038   0016A6  0E00               	movlw	0
  7039   0016A8  5B77               	subwfb	(??___fldiv+1)& (0+255),f,b
  7040   0016AA  0E7F               	movlw	127
  7041   0016AC  2576               	addwf	??___fldiv& (0+255),w,b
  7042   0016AE  6F7F               	movwf	___fldiv@new_exp& (0+255),b
  7043   0016B0  0E00               	movlw	0
  7044   0016B2  2177               	addwfc	(??___fldiv+1)& (0+255),w,b
  7045   0016B4  6F80               	movwf	(___fldiv@new_exp+1)& (0+255),b
  7046   0016B6                     
  7047                           ; BSR set to: 0
  7048   0016B6  C06E  F07A         	movff	___fldiv@b,___fldiv@rem
  7049   0016BA  C06F  F07B         	movff	___fldiv@b+1,___fldiv@rem+1
  7050   0016BE  C070  F07C         	movff	___fldiv@b+2,___fldiv@rem+2
  7051   0016C2  C071  F07D         	movff	___fldiv@b+3,___fldiv@rem+3
  7052   0016C6                     
  7053                           ; BSR set to: 0
  7054   0016C6  0E00               	movlw	0
  7055   0016C8  6F6E               	movwf	___fldiv@b& (0+255),b
  7056   0016CA  0E00               	movlw	0
  7057   0016CC  6F6F               	movwf	(___fldiv@b+1)& (0+255),b
  7058   0016CE  0E00               	movlw	0
  7059   0016D0  6F70               	movwf	(___fldiv@b+2)& (0+255),b
  7060   0016D2  0E00               	movlw	0
  7061   0016D4  6F71               	movwf	(___fldiv@b+3)& (0+255),b
  7062   0016D6                     
  7063                           ; BSR set to: 0
  7064   0016D6  0E00               	movlw	0
  7065   0016D8  6F81               	movwf	___fldiv@grs& (0+255),b
  7066   0016DA  0E00               	movlw	0
  7067   0016DC  6F82               	movwf	(___fldiv@grs+1)& (0+255),b
  7068   0016DE  0E00               	movlw	0
  7069   0016E0  6F83               	movwf	(___fldiv@grs+2)& (0+255),b
  7070   0016E2  0E00               	movlw	0
  7071   0016E4  6F84               	movwf	(___fldiv@grs+3)& (0+255),b
  7072   0016E6                     
  7073                           ; BSR set to: 0
  7074   0016E6  0E00               	movlw	0
  7075   0016E8  6F86               	movwf	___fldiv@aexp& (0+255),b
  7076   0016EA  EFAF  F00B         	goto	l768
  7077   0016EE                     l3221:
  7078                           
  7079                           ; BSR set to: 0
  7080   0016EE  5186               	movf	___fldiv@aexp& (0+255),w,b
  7081   0016F0  B4D8               	btfsc	status,2,c
  7082   0016F2  EF7D  F00B         	goto	u3041
  7083   0016F6  EF7F  F00B         	goto	u3040
  7084   0016FA                     u3041:
  7085   0016FA  EF96  F00B         	goto	l3229
  7086   0016FE                     u3040:
  7087   0016FE                     
  7088                           ; BSR set to: 0
  7089   0016FE  90D8               	bcf	status,0,c
  7090   001700  377A               	rlcf	___fldiv@rem& (0+255),f,b
  7091   001702  377B               	rlcf	(___fldiv@rem+1)& (0+255),f,b
  7092   001704  377C               	rlcf	(___fldiv@rem+2)& (0+255),f,b
  7093   001706  377D               	rlcf	(___fldiv@rem+3)& (0+255),f,b
  7094   001708  90D8               	bcf	status,0,c
  7095   00170A  376E               	rlcf	___fldiv@b& (0+255),f,b
  7096   00170C  376F               	rlcf	(___fldiv@b+1)& (0+255),f,b
  7097   00170E  3770               	rlcf	(___fldiv@b+2)& (0+255),f,b
  7098   001710  3771               	rlcf	(___fldiv@b+3)& (0+255),f,b
  7099   001712                     
  7100                           ; BSR set to: 0
  7101   001712  AF84               	btfss	(___fldiv@grs+3)& (0+255),7,b
  7102   001714  EF8E  F00B         	goto	u3051
  7103   001718  EF90  F00B         	goto	u3050
  7104   00171C                     u3051:
  7105   00171C  EF91  F00B         	goto	l771
  7106   001720                     u3050:
  7107   001720                     
  7108                           ; BSR set to: 0
  7109   001720  816E               	bsf	___fldiv@b& (0+255),0,b
  7110   001722                     l771:
  7111                           
  7112                           ; BSR set to: 0
  7113   001722  90D8               	bcf	status,0,c
  7114   001724  3781               	rlcf	___fldiv@grs& (0+255),f,b
  7115   001726  3782               	rlcf	(___fldiv@grs+1)& (0+255),f,b
  7116   001728  3783               	rlcf	(___fldiv@grs+2)& (0+255),f,b
  7117   00172A  3784               	rlcf	(___fldiv@grs+3)& (0+255),f,b
  7118   00172C                     l3229:
  7119                           
  7120                           ; BSR set to: 0
  7121   00172C  5172               	movf	___fldiv@a& (0+255),w,b
  7122   00172E  5D7A               	subwf	___fldiv@rem& (0+255),w,b
  7123   001730  5173               	movf	(___fldiv@a+1)& (0+255),w,b
  7124   001732  597B               	subwfb	(___fldiv@rem+1)& (0+255),w,b
  7125   001734  5174               	movf	(___fldiv@a+2)& (0+255),w,b
  7126   001736  597C               	subwfb	(___fldiv@rem+2)& (0+255),w,b
  7127   001738  5175               	movf	(___fldiv@a+3)& (0+255),w,b
  7128   00173A  597D               	subwfb	(___fldiv@rem+3)& (0+255),w,b
  7129   00173C  A0D8               	btfss	status,0,c
  7130   00173E  EFA3  F00B         	goto	u3061
  7131   001742  EFA5  F00B         	goto	u3060
  7132   001746                     u3061:
  7133   001746  EFAE  F00B         	goto	l3235
  7134   00174A                     u3060:
  7135   00174A                     
  7136                           ; BSR set to: 0
  7137   00174A  8D84               	bsf	(___fldiv@grs+3)& (0+255),6,b
  7138   00174C                     
  7139                           ; BSR set to: 0
  7140   00174C  5172               	movf	___fldiv@a& (0+255),w,b
  7141   00174E  5F7A               	subwf	___fldiv@rem& (0+255),f,b
  7142   001750  5173               	movf	(___fldiv@a+1)& (0+255),w,b
  7143   001752  5B7B               	subwfb	(___fldiv@rem+1)& (0+255),f,b
  7144   001754  5174               	movf	(___fldiv@a+2)& (0+255),w,b
  7145   001756  5B7C               	subwfb	(___fldiv@rem+2)& (0+255),f,b
  7146   001758  5175               	movf	(___fldiv@a+3)& (0+255),w,b
  7147   00175A  5B7D               	subwfb	(___fldiv@rem+3)& (0+255),f,b
  7148   00175C                     l3235:
  7149                           
  7150                           ; BSR set to: 0
  7151   00175C  2B86               	incf	___fldiv@aexp& (0+255),f,b
  7152   00175E                     l768:
  7153                           
  7154                           ; BSR set to: 0
  7155   00175E  0E19               	movlw	25
  7156   001760  6586               	cpfsgt	___fldiv@aexp& (0+255),b
  7157   001762  EFB5  F00B         	goto	u3071
  7158   001766  EFB7  F00B         	goto	u3070
  7159   00176A                     u3071:
  7160   00176A  EF77  F00B         	goto	l3221
  7161   00176E                     u3070:
  7162   00176E                     
  7163                           ; BSR set to: 0
  7164   00176E  517A               	movf	___fldiv@rem& (0+255),w,b
  7165   001770  117B               	iorwf	(___fldiv@rem+1)& (0+255),w,b
  7166   001772  117C               	iorwf	(___fldiv@rem+2)& (0+255),w,b
  7167   001774  117D               	iorwf	(___fldiv@rem+3)& (0+255),w,b
  7168   001776  B4D8               	btfsc	status,2,c
  7169   001778  EFC0  F00B         	goto	u3081
  7170   00177C  EFC2  F00B         	goto	u3080
  7171   001780                     u3081:
  7172   001780  EFDA  F00B         	goto	l3247
  7173   001784                     u3080:
  7174   001784                     
  7175                           ; BSR set to: 0
  7176   001784  8181               	bsf	___fldiv@grs& (0+255),0,b
  7177   001786  EFDA  F00B         	goto	l3247
  7178   00178A                     l3241:
  7179                           
  7180                           ; BSR set to: 0
  7181   00178A  90D8               	bcf	status,0,c
  7182   00178C  376E               	rlcf	___fldiv@b& (0+255),f,b
  7183   00178E  376F               	rlcf	(___fldiv@b+1)& (0+255),f,b
  7184   001790  3770               	rlcf	(___fldiv@b+2)& (0+255),f,b
  7185   001792  3771               	rlcf	(___fldiv@b+3)& (0+255),f,b
  7186   001794                     
  7187                           ; BSR set to: 0
  7188   001794  AF84               	btfss	(___fldiv@grs+3)& (0+255),7,b
  7189   001796  EFCF  F00B         	goto	u3091
  7190   00179A  EFD1  F00B         	goto	u3090
  7191   00179E                     u3091:
  7192   00179E  EFD2  F00B         	goto	l777
  7193   0017A2                     u3090:
  7194   0017A2                     
  7195                           ; BSR set to: 0
  7196   0017A2  816E               	bsf	___fldiv@b& (0+255),0,b
  7197   0017A4                     l777:
  7198                           
  7199                           ; BSR set to: 0
  7200   0017A4  90D8               	bcf	status,0,c
  7201   0017A6  3781               	rlcf	___fldiv@grs& (0+255),f,b
  7202   0017A8  3782               	rlcf	(___fldiv@grs+1)& (0+255),f,b
  7203   0017AA  3783               	rlcf	(___fldiv@grs+2)& (0+255),f,b
  7204   0017AC  3784               	rlcf	(___fldiv@grs+3)& (0+255),f,b
  7205   0017AE  077F               	decf	___fldiv@new_exp& (0+255),f,b
  7206   0017B0  A0D8               	btfss	status,0,c
  7207   0017B2  0780               	decf	(___fldiv@new_exp+1)& (0+255),f,b
  7208   0017B4                     l3247:
  7209                           
  7210                           ; BSR set to: 0
  7211   0017B4  AF70               	btfss	(___fldiv@b+2)& (0+255),7,b
  7212   0017B6  EFDF  F00B         	goto	u3101
  7213   0017BA  EFE1  F00B         	goto	u3100
  7214   0017BE                     u3101:
  7215   0017BE  EFC5  F00B         	goto	l3241
  7216   0017C2                     u3100:
  7217   0017C2                     
  7218                           ; BSR set to: 0
  7219   0017C2  0E00               	movlw	0
  7220   0017C4  6F86               	movwf	___fldiv@aexp& (0+255),b
  7221   0017C6                     
  7222                           ; BSR set to: 0
  7223   0017C6  AF84               	btfss	(___fldiv@grs+3)& (0+255),7,b
  7224   0017C8  EFE8  F00B         	goto	u3111
  7225   0017CC  EFEA  F00B         	goto	u3110
  7226   0017D0                     u3111:
  7227   0017D0  EF0E  F00C         	goto	l779
  7228   0017D4                     u3110:
  7229   0017D4                     
  7230                           ; BSR set to: 0
  7231   0017D4  0EFF               	movlw	255
  7232   0017D6  1581               	andwf	___fldiv@grs& (0+255),w,b
  7233   0017D8  6F76               	movwf	??___fldiv& (0+255),b
  7234   0017DA  0EFF               	movlw	255
  7235   0017DC  1582               	andwf	(___fldiv@grs+1)& (0+255),w,b
  7236   0017DE  6F77               	movwf	(??___fldiv+1)& (0+255),b
  7237   0017E0  0EFF               	movlw	255
  7238   0017E2  1583               	andwf	(___fldiv@grs+2)& (0+255),w,b
  7239   0017E4  6F78               	movwf	(??___fldiv+2)& (0+255),b
  7240   0017E6  0E7F               	movlw	127
  7241   0017E8  1584               	andwf	(___fldiv@grs+3)& (0+255),w,b
  7242   0017EA  6F79               	movwf	(??___fldiv+3)& (0+255),b
  7243   0017EC  5176               	movf	??___fldiv& (0+255),w,b
  7244   0017EE  1177               	iorwf	(??___fldiv+1)& (0+255),w,b
  7245   0017F0  1178               	iorwf	(??___fldiv+2)& (0+255),w,b
  7246   0017F2  1179               	iorwf	(??___fldiv+3)& (0+255),w,b
  7247   0017F4  B4D8               	btfsc	status,2,c
  7248   0017F6  EFFF  F00B         	goto	u3121
  7249   0017FA  EF01  F00C         	goto	u3120
  7250   0017FE                     u3121:
  7251   0017FE  EF05  F00C         	goto	l780
  7252   001802                     u3120:
  7253   001802                     l3255:
  7254                           
  7255                           ; BSR set to: 0
  7256   001802  0E01               	movlw	1
  7257   001804  6F86               	movwf	___fldiv@aexp& (0+255),b
  7258   001806  EF0E  F00C         	goto	l779
  7259   00180A                     l780:
  7260                           
  7261                           ; BSR set to: 0
  7262   00180A  A16E               	btfss	___fldiv@b& (0+255),0,b
  7263   00180C  EF0A  F00C         	goto	u3131
  7264   001810  EF0C  F00C         	goto	u3130
  7265   001814                     u3131:
  7266   001814  EF0E  F00C         	goto	l779
  7267   001818                     u3130:
  7268   001818  EF01  F00C         	goto	l3255
  7269   00181C                     l779:
  7270                           
  7271                           ; BSR set to: 0
  7272   00181C  5186               	movf	___fldiv@aexp& (0+255),w,b
  7273   00181E  B4D8               	btfsc	status,2,c
  7274   001820  EF14  F00C         	goto	u3141
  7275   001824  EF16  F00C         	goto	u3140
  7276   001828                     u3141:
  7277   001828  EF3A  F00C         	goto	l3267
  7278   00182C                     u3140:
  7279   00182C                     
  7280                           ; BSR set to: 0
  7281   00182C  0E01               	movlw	1
  7282   00182E  276E               	addwf	___fldiv@b& (0+255),f,b
  7283   001830  0E00               	movlw	0
  7284   001832  236F               	addwfc	(___fldiv@b+1)& (0+255),f,b
  7285   001834  2370               	addwfc	(___fldiv@b+2)& (0+255),f,b
  7286   001836  2371               	addwfc	(___fldiv@b+3)& (0+255),f,b
  7287   001838                     
  7288                           ; BSR set to: 0
  7289   001838  A171               	btfss	(___fldiv@b+3)& (0+255),0,b
  7290   00183A  EF21  F00C         	goto	u3151
  7291   00183E  EF23  F00C         	goto	u3150
  7292   001842                     u3151:
  7293   001842  EF3A  F00C         	goto	l3267
  7294   001846                     u3150:
  7295   001846                     
  7296                           ; BSR set to: 0
  7297   001846  C06E  F076         	movff	___fldiv@b,??___fldiv
  7298   00184A  C06F  F077         	movff	___fldiv@b+1,??___fldiv+1
  7299   00184E  C070  F078         	movff	___fldiv@b+2,??___fldiv+2
  7300   001852  C071  F079         	movff	___fldiv@b+3,??___fldiv+3
  7301   001856  3579               	rlcf	(??___fldiv+3)& (0+255),w,b
  7302   001858  3379               	rrcf	(??___fldiv+3)& (0+255),f,b
  7303   00185A  3378               	rrcf	(??___fldiv+2)& (0+255),f,b
  7304   00185C  3377               	rrcf	(??___fldiv+1)& (0+255),f,b
  7305   00185E  3376               	rrcf	??___fldiv& (0+255),f,b
  7306   001860  C076  F06E         	movff	??___fldiv,___fldiv@b
  7307   001864  C077  F06F         	movff	??___fldiv+1,___fldiv@b+1
  7308   001868  C078  F070         	movff	??___fldiv+2,___fldiv@b+2
  7309   00186C  C079  F071         	movff	??___fldiv+3,___fldiv@b+3
  7310   001870                     
  7311                           ; BSR set to: 0
  7312   001870  4B7F               	infsnz	___fldiv@new_exp& (0+255),f,b
  7313   001872  2B80               	incf	(___fldiv@new_exp+1)& (0+255),f,b
  7314   001874                     l3267:
  7315                           
  7316                           ; BSR set to: 0
  7317   001874  BF80               	btfsc	(___fldiv@new_exp+1)& (0+255),7,b
  7318   001876  EF45  F00C         	goto	u3161
  7319   00187A  5180               	movf	(___fldiv@new_exp+1)& (0+255),w,b
  7320   00187C  E108               	bnz	u3160
  7321   00187E  297F               	incf	___fldiv@new_exp& (0+255),w,b
  7322   001880  A0D8               	btfss	status,0,c
  7323   001882  EF45  F00C         	goto	u3161
  7324   001886  EF47  F00C         	goto	u3160
  7325   00188A                     u3161:
  7326   00188A  EF52  F00C         	goto	l3271
  7327   00188E                     u3160:
  7328   00188E                     
  7329                           ; BSR set to: 0
  7330   00188E  0E00               	movlw	0
  7331   001890  6F80               	movwf	(___fldiv@new_exp+1)& (0+255),b
  7332   001892  697F               	setf	___fldiv@new_exp& (0+255),b
  7333   001894  0E00               	movlw	0
  7334   001896  6F6E               	movwf	___fldiv@b& (0+255),b
  7335   001898  0E00               	movlw	0
  7336   00189A  6F6F               	movwf	(___fldiv@b+1)& (0+255),b
  7337   00189C  0E00               	movlw	0
  7338   00189E  6F70               	movwf	(___fldiv@b+2)& (0+255),b
  7339   0018A0  0E00               	movlw	0
  7340   0018A2  6F71               	movwf	(___fldiv@b+3)& (0+255),b
  7341   0018A4                     l3271:
  7342                           
  7343                           ; BSR set to: 0
  7344   0018A4  BF80               	btfsc	(___fldiv@new_exp+1)& (0+255),7,b
  7345   0018A6  EF5F  F00C         	goto	u3170
  7346   0018AA  5180               	movf	(___fldiv@new_exp+1)& (0+255),w,b
  7347   0018AC  E106               	bnz	u3171
  7348   0018AE  057F               	decf	___fldiv@new_exp& (0+255),w,b
  7349   0018B0  B0D8               	btfsc	status,0,c
  7350   0018B2  EF5D  F00C         	goto	u3171
  7351   0018B6  EF5F  F00C         	goto	u3170
  7352   0018BA                     u3171:
  7353   0018BA  EF6D  F00C         	goto	l3275
  7354   0018BE                     u3170:
  7355   0018BE                     
  7356                           ; BSR set to: 0
  7357   0018BE  0E00               	movlw	0
  7358   0018C0  6F80               	movwf	(___fldiv@new_exp+1)& (0+255),b
  7359   0018C2  0E00               	movlw	0
  7360   0018C4  6F7F               	movwf	___fldiv@new_exp& (0+255),b
  7361   0018C6  0E00               	movlw	0
  7362   0018C8  6F6E               	movwf	___fldiv@b& (0+255),b
  7363   0018CA  0E00               	movlw	0
  7364   0018CC  6F6F               	movwf	(___fldiv@b+1)& (0+255),b
  7365   0018CE  0E00               	movlw	0
  7366   0018D0  6F70               	movwf	(___fldiv@b+2)& (0+255),b
  7367   0018D2  0E00               	movlw	0
  7368   0018D4  6F71               	movwf	(___fldiv@b+3)& (0+255),b
  7369   0018D6  0E00               	movlw	0
  7370   0018D8  6F7E               	movwf	___fldiv@sign& (0+255),b
  7371   0018DA                     l3275:
  7372                           
  7373                           ; BSR set to: 0
  7374   0018DA  C07F  F085         	movff	___fldiv@new_exp,___fldiv@bexp
  7375   0018DE                     
  7376                           ; BSR set to: 0
  7377   0018DE  A185               	btfss	___fldiv@bexp& (0+255),0,b
  7378   0018E0  EF74  F00C         	goto	u3181
  7379   0018E4  EF76  F00C         	goto	u3180
  7380   0018E8                     u3181:
  7381   0018E8  EF79  F00C         	goto	l3281
  7382   0018EC                     u3180:
  7383   0018EC                     
  7384                           ; BSR set to: 0
  7385   0018EC  8F70               	bsf	(___fldiv@b+2)& (0+255),7,b
  7386   0018EE  EF7A  F00C         	goto	l3283
  7387   0018F2                     l3281:
  7388                           
  7389                           ; BSR set to: 0
  7390   0018F2  9F70               	bcf	(___fldiv@b+2)& (0+255),7,b
  7391   0018F4                     l3283:
  7392                           
  7393                           ; BSR set to: 0
  7394   0018F4  90D8               	bcf	status,0,c
  7395   0018F6  3185               	rrcf	___fldiv@bexp& (0+255),w,b
  7396   0018F8  6F71               	movwf	(___fldiv@b+3)& (0+255),b
  7397   0018FA  EF30  F00B         	goto	l3197
  7398   0018FE                     l766:
  7399                           
  7400                           ; BSR set to: 0
  7401   0018FE  0012               	return		;funcret
  7402   001900                     __end_of___fldiv:
  7403                           	callstack 0
  7404                           
  7405 ;; *************** function _LCD_Out *****************
  7406 ;; Defined at:
  7407 ;;		line 123 in file "LIBRERIA_LCD.c"
  7408 ;; Parameters:    Size  Location     Type
  7409 ;;  row             1    wreg     unsigned char 
  7410 ;;  column          1    8[BANK0 ] unsigned char 
  7411 ;;  text            2    9[BANK0 ] PTR unsigned char 
  7412 ;;		 -> STR_4(21), STR_3(21), aux(20), 
  7413 ;; Auto vars:     Size  Location     Type
  7414 ;;  row             1   11[BANK0 ] unsigned char 
  7415 ;; Return value:  Size  Location     Type
  7416 ;;                  1    wreg      void 
  7417 ;; Registers used:
  7418 ;;		wreg, fsr1l, fsr1h, status,2, status,0, tblptrl, tblptrh, tblptru, cstack
  7419 ;; Tracked objects:
  7420 ;;		On entry : 0/0
  7421 ;;		On exit  : 0/0
  7422 ;;		Unchanged: 0/0
  7423 ;; Data sizes:     COMRAM   BANK0   BANK1   BANK2   BANK3   BANK4   BANK5   BANK6   BANK7
  7424 ;;      Params:         0       3       0       0       0       0       0       0       0
  7425 ;;      Locals:         0       1       0       0       0       0       0       0       0
  7426 ;;      Temps:          0       0       0       0       0       0       0       0       0
  7427 ;;      Totals:         0       4       0       0       0       0       0       0       0
  7428 ;;Total ram usage:        4 bytes
  7429 ;; Hardware stack levels used: 1
  7430 ;; Hardware stack levels required when called: 5
  7431 ;; This function calls:
  7432 ;;		_LCD_Chr_Cp
  7433 ;;		_LCD_XY
  7434 ;; This function is called by:
  7435 ;;		_main
  7436 ;;		_LCD_LIMPIA_FILA
  7437 ;; This function uses a non-reentrant model
  7438 ;;
  7439                           
  7440                           	psect	text29
  7441   0034B2                     __ptext29:
  7442                           	callstack 0
  7443   0034B2                     _LCD_Out:
  7444                           	callstack 25
  7445                           
  7446                           ; BSR set to: 0
  7447                           ;incstack = 0
  7448                           ;LCD_Out@row stored from wreg
  7449   0034B2  0100               	movlb	0	; () banked
  7450   0034B4  6F6B               	movwf	LCD_Out@row& (0+255),b
  7451   0034B6                     
  7452                           ;LIBRERIA_LCD.c: 124:     LCD_XY(row,column);
  7453   0034B6  C068  F064         	movff	LCD_Out@column,LCD_XY@column
  7454   0034BA  0100               	movlb	0	; () banked
  7455   0034BC  516B               	movf	LCD_Out@row& (0+255),w,b
  7456   0034BE  EC14  F01A         	call	_LCD_XY
  7457                           
  7458                           ;LIBRERIA_LCD.c: 125:     while(*text){
  7459   0034C2  EF78  F01A         	goto	l3653
  7460   0034C6                     l3649:
  7461                           
  7462                           ;LIBRERIA_LCD.c: 126:         LCD_Chr_Cp(*text);
  7463   0034C6  C069  FFF6         	movff	LCD_Out@text,tblptrl
  7464   0034CA  C06A  FFF7         	movff	LCD_Out@text+1,tblptrh
  7465   0034CE  6AF8               	clrf	tblptru,c
  7466   0034D0  0E07               	movlw	(high __ramtop+-1)
  7467   0034D2  64F7               	cpfsgt	tblptrh,c
  7468   0034D4  D003               	bra	u3617
  7469   0034D6  0008               	tblrd		*
  7470   0034D8  50F5               	movf	tablat,w,c
  7471   0034DA  D005               	bra	u3610
  7472   0034DC                     u3617:
  7473   0034DC  CFF6 FFE1          	movff	tblptrl,fsr1l
  7474   0034E0  CFF7 FFE2          	movff	tblptrh,fsr1h
  7475   0034E4  50E7               	movf	indf1,w,c
  7476   0034E6                     u3610:
  7477   0034E6  EC09  F01C         	call	_LCD_Chr_Cp
  7478   0034EA                     
  7479                           ;LIBRERIA_LCD.c: 127:         text++;
  7480   0034EA  0100               	movlb	0	; () banked
  7481   0034EC  4B69               	infsnz	LCD_Out@text& (0+255),f,b
  7482   0034EE  2B6A               	incf	(LCD_Out@text+1)& (0+255),f,b
  7483   0034F0                     l3653:
  7484                           
  7485                           ;LIBRERIA_LCD.c: 125:     while(*text){
  7486   0034F0  C069  FFF6         	movff	LCD_Out@text,tblptrl
  7487   0034F4  C06A  FFF7         	movff	LCD_Out@text+1,tblptrh
  7488   0034F8  6AF8               	clrf	tblptru,c
  7489   0034FA  0E07               	movlw	(high __ramtop+-1)
  7490   0034FC  64F7               	cpfsgt	tblptrh,c
  7491   0034FE  D003               	bra	u3627
  7492   003500  0008               	tblrd		*
  7493   003502  50F5               	movf	tablat,w,c
  7494   003504  D005               	bra	u3620
  7495   003506                     u3627:
  7496   003506  CFF6 FFE1          	movff	tblptrl,fsr1l
  7497   00350A  CFF7 FFE2          	movff	tblptrh,fsr1h
  7498   00350E  50E7               	movf	indf1,w,c
  7499   003510                     u3620:
  7500   003510  0900               	iorlw	0
  7501   003512  A4D8               	btfss	status,2,c
  7502   003514  EF8E  F01A         	goto	u3631
  7503   003518  EF90  F01A         	goto	u3630
  7504   00351C                     u3631:
  7505   00351C  EF63  F01A         	goto	l3649
  7506   003520                     u3630:
  7507   003520  0012               	return		;funcret
  7508   003522                     __end_of_LCD_Out:
  7509                           	callstack 0
  7510                           
  7511 ;; *************** function _LCD_XY *****************
  7512 ;; Defined at:
  7513 ;;		line 103 in file "LIBRERIA_LCD.c"
  7514 ;; Parameters:    Size  Location     Type
  7515 ;;  row             1    wreg     unsigned char 
  7516 ;;  column          1    4[BANK0 ] unsigned char 
  7517 ;; Auto vars:     Size  Location     Type
  7518 ;;  row             1    7[BANK0 ] unsigned char 
  7519 ;; Return value:  Size  Location     Type
  7520 ;;                  1    wreg      void 
  7521 ;; Registers used:
  7522 ;;		wreg, status,2, status,0, cstack
  7523 ;; Tracked objects:
  7524 ;;		On entry : 0/0
  7525 ;;		On exit  : 0/0
  7526 ;;		Unchanged: 0/0
  7527 ;; Data sizes:     COMRAM   BANK0   BANK1   BANK2   BANK3   BANK4   BANK5   BANK6   BANK7
  7528 ;;      Params:         0       1       0       0       0       0       0       0       0
  7529 ;;      Locals:         0       1       0       0       0       0       0       0       0
  7530 ;;      Temps:          0       2       0       0       0       0       0       0       0
  7531 ;;      Totals:         0       4       0       0       0       0       0       0       0
  7532 ;;Total ram usage:        4 bytes
  7533 ;; Hardware stack levels used: 1
  7534 ;; Hardware stack levels required when called: 4
  7535 ;; This function calls:
  7536 ;;		_LCD_Cmd
  7537 ;; This function is called by:
  7538 ;;		_LCD_Out
  7539 ;;		_LCD_Chr
  7540 ;; This function uses a non-reentrant model
  7541 ;;
  7542                           
  7543                           	psect	text30
  7544   003428                     __ptext30:
  7545                           	callstack 0
  7546   003428                     _LCD_XY:
  7547                           	callstack 25
  7548                           
  7549                           ;incstack = 0
  7550                           ;LCD_XY@row stored from wreg
  7551   003428  0100               	movlb	0	; () banked
  7552   00342A  6F67               	movwf	LCD_XY@row& (0+255),b
  7553   00342C                     
  7554                           ;LIBRERIA_LCD.c: 105:     switch(row){
  7555   00342C  EF30  F01A         	goto	l3133
  7556   003430                     l3123:
  7557                           
  7558                           ; BSR set to: 0
  7559   003430  5164               	movf	LCD_XY@column& (0+255),w,b
  7560   003432  0F7F               	addlw	127
  7561   003434  EC00  F01C         	call	_LCD_Cmd
  7562   003438  EF4E  F01A         	goto	l3135
  7563   00343C                     l3125:
  7564                           
  7565                           ; BSR set to: 0
  7566   00343C  5164               	movf	LCD_XY@column& (0+255),w,b
  7567   00343E  0FBF               	addlw	191
  7568   003440  EC00  F01C         	call	_LCD_Cmd
  7569   003444  EF4E  F01A         	goto	l3135
  7570   003448                     l3127:
  7571                           
  7572                           ; BSR set to: 0
  7573   003448  5164               	movf	LCD_XY@column& (0+255),w,b
  7574   00344A  0F93               	addlw	147
  7575   00344C  EC00  F01C         	call	_LCD_Cmd
  7576   003450  EF4E  F01A         	goto	l3135
  7577   003454                     l3129:
  7578                           
  7579                           ; BSR set to: 0
  7580   003454  5164               	movf	LCD_XY@column& (0+255),w,b
  7581   003456  0FD3               	addlw	211
  7582   003458  EC00  F01C         	call	_LCD_Cmd
  7583   00345C  EF4E  F01A         	goto	l3135
  7584   003460                     l3133:
  7585   003460  0100               	movlb	0	; () banked
  7586   003462  5167               	movf	LCD_XY@row& (0+255),w,b
  7587   003464  6F65               	movwf	??_LCD_XY& (0+255),b
  7588   003466  6B66               	clrf	(??_LCD_XY+1)& (0+255),b
  7589                           
  7590                           ; Switch on 2 bytes has been partitioned into a top level switch of size 1, and 1 sub-sw
      +                          itches
  7591                           ; Switch size 1, requested type "simple"
  7592                           ; Number of cases is 1, Range of values is 0 to 0
  7593                           ; switch strategies available:
  7594                           ; Name         Instructions Cycles
  7595                           ; simple_byte            4     3 (average)
  7596                           ;	Chosen strategy is simple_byte
  7597   003468  5166               	movf	(??_LCD_XY+1)& (0+255),w,b
  7598   00346A  0A00               	xorlw	0	; case 0
  7599   00346C  B4D8               	btfsc	status,2,c
  7600   00346E  EF3B  F01A         	goto	l4105
  7601   003472  EF4E  F01A         	goto	l3135
  7602   003476                     l4105:
  7603                           
  7604                           ; BSR set to: 0
  7605                           ; Switch size 1, requested type "simple"
  7606                           ; Number of cases is 4, Range of values is 1 to 4
  7607                           ; switch strategies available:
  7608                           ; Name         Instructions Cycles
  7609                           ; simple_byte           13     7 (average)
  7610                           ;	Chosen strategy is simple_byte
  7611   003476  5165               	movf	??_LCD_XY& (0+255),w,b
  7612   003478  0A01               	xorlw	1	; case 1
  7613   00347A  B4D8               	btfsc	status,2,c
  7614   00347C  EF18  F01A         	goto	l3123
  7615   003480  0A03               	xorlw	3	; case 2
  7616   003482  B4D8               	btfsc	status,2,c
  7617   003484  EF1E  F01A         	goto	l3125
  7618   003488  0A01               	xorlw	1	; case 3
  7619   00348A  B4D8               	btfsc	status,2,c
  7620   00348C  EF24  F01A         	goto	l3127
  7621   003490  0A07               	xorlw	7	; case 4
  7622   003492  B4D8               	btfsc	status,2,c
  7623   003494  EF2A  F01A         	goto	l3129
  7624   003498  EF4E  F01A         	goto	l3135
  7625   00349C                     l3135:
  7626                           
  7627                           ;LIBRERIA_LCD.c: 111:     _delay((unsigned long)((100)*(4000000L/4000.0)));
  7628   00349C  0E82               	movlw	130
  7629   00349E  0100               	movlb	0	; () banked
  7630   0034A0  6F65               	movwf	??_LCD_XY& (0+255),b
  7631   0034A2  0EDD               	movlw	221
  7632   0034A4                     u4057:
  7633   0034A4  2EE8               	decfsz	wreg,f,c
  7634   0034A6  D7FE               	bra	u4057
  7635   0034A8  2F65               	decfsz	??_LCD_XY& (0+255),f,b
  7636   0034AA  D7FC               	bra	u4057
  7637   0034AC  D000               	nop2	
  7638   0034AE                     
  7639                           ;LIBRERIA_LCD.c: 112:     LATDbits.LATD0=0;
  7640   0034AE  908C               	bcf	140,0,c	;volatile
  7641   0034B0  0012               	return		;funcret
  7642   0034B2                     __end_of_LCD_XY:
  7643                           	callstack 0
  7644                           
  7645 ;; *************** function _LCD_Cmd *****************
  7646 ;; Defined at:
  7647 ;;		line 96 in file "LIBRERIA_LCD.c"
  7648 ;; Parameters:    Size  Location     Type
  7649 ;;  cmd             1    wreg     unsigned char 
  7650 ;; Auto vars:     Size  Location     Type
  7651 ;;  cmd             1    3[BANK0 ] unsigned char 
  7652 ;; Return value:  Size  Location     Type
  7653 ;;                  1    wreg      void 
  7654 ;; Registers used:
  7655 ;;		wreg, status,2, status,0, cstack
  7656 ;; Tracked objects:
  7657 ;;		On entry : 0/0
  7658 ;;		On exit  : 0/0
  7659 ;;		Unchanged: 0/0
  7660 ;; Data sizes:     COMRAM   BANK0   BANK1   BANK2   BANK3   BANK4   BANK5   BANK6   BANK7
  7661 ;;      Params:         0       0       0       0       0       0       0       0       0
  7662 ;;      Locals:         0       1       0       0       0       0       0       0       0
  7663 ;;      Temps:          0       0       0       0       0       0       0       0       0
  7664 ;;      Totals:         0       1       0       0       0       0       0       0       0
  7665 ;;Total ram usage:        1 bytes
  7666 ;; Hardware stack levels used: 1
  7667 ;; Hardware stack levels required when called: 3
  7668 ;; This function calls:
  7669 ;;		_enviar_dato
  7670 ;; This function is called by:
  7671 ;;		_main
  7672 ;;		_LCD_XY
  7673 ;; This function uses a non-reentrant model
  7674 ;;
  7675                           
  7676                           	psect	text31
  7677   003800                     __ptext31:
  7678                           	callstack 0
  7679   003800                     _LCD_Cmd:
  7680                           	callstack 25
  7681                           
  7682                           ;incstack = 0
  7683                           ;LCD_Cmd@cmd stored from wreg
  7684   003800  0100               	movlb	0	; () banked
  7685   003802  6F63               	movwf	LCD_Cmd@cmd& (0+255),b
  7686   003804                     
  7687                           ;LIBRERIA_LCD.c: 97:     LATDbits.LATD0=0;
  7688   003804  908C               	bcf	140,0,c	;volatile
  7689   003806                     
  7690                           ;LIBRERIA_LCD.c: 98:     enviar_dato(cmd);
  7691   003806  0100               	movlb	0	; () banked
  7692   003808  5163               	movf	LCD_Cmd@cmd& (0+255),w,b
  7693   00380A  ECB7  F015         	call	_enviar_dato
  7694   00380E                     
  7695                           ;LIBRERIA_LCD.c: 99:     LATDbits.LATD0=0;
  7696   00380E  908C               	bcf	140,0,c	;volatile
  7697   003810  0012               	return		;funcret
  7698   003812                     __end_of_LCD_Cmd:
  7699                           	callstack 0
  7700                           
  7701 ;; *************** function _LCD_Chr_Cp *****************
  7702 ;; Defined at:
  7703 ;;		line 89 in file "LIBRERIA_LCD.c"
  7704 ;; Parameters:    Size  Location     Type
  7705 ;;  letra           1    wreg     unsigned char 
  7706 ;; Auto vars:     Size  Location     Type
  7707 ;;  letra           1    3[BANK0 ] unsigned char 
  7708 ;; Return value:  Size  Location     Type
  7709 ;;                  1    wreg      void 
  7710 ;; Registers used:
  7711 ;;		wreg, status,2, status,0, cstack
  7712 ;; Tracked objects:
  7713 ;;		On entry : 0/0
  7714 ;;		On exit  : 0/0
  7715 ;;		Unchanged: 0/0
  7716 ;; Data sizes:     COMRAM   BANK0   BANK1   BANK2   BANK3   BANK4   BANK5   BANK6   BANK7
  7717 ;;      Params:         0       0       0       0       0       0       0       0       0
  7718 ;;      Locals:         0       1       0       0       0       0       0       0       0
  7719 ;;      Temps:          0       0       0       0       0       0       0       0       0
  7720 ;;      Totals:         0       1       0       0       0       0       0       0       0
  7721 ;;Total ram usage:        1 bytes
  7722 ;; Hardware stack levels used: 1
  7723 ;; Hardware stack levels required when called: 3
  7724 ;; This function calls:
  7725 ;;		_enviar_dato
  7726 ;; This function is called by:
  7727 ;;		_LCD_Out
  7728 ;;		_LCD_Out_Cp
  7729 ;; This function uses a non-reentrant model
  7730 ;;
  7731                           
  7732                           	psect	text32
  7733   003812                     __ptext32:
  7734                           	callstack 0
  7735   003812                     _LCD_Chr_Cp:
  7736                           	callstack 26
  7737                           
  7738                           ;incstack = 0
  7739                           ;LCD_Chr_Cp@letra stored from wreg
  7740   003812  0100               	movlb	0	; () banked
  7741   003814  6F63               	movwf	LCD_Chr_Cp@letra& (0+255),b
  7742   003816                     
  7743                           ;LIBRERIA_LCD.c: 90:     LATDbits.LATD0=1;
  7744   003816  808C               	bsf	140,0,c	;volatile
  7745   003818                     
  7746                           ;LIBRERIA_LCD.c: 91:     enviar_dato(letra);
  7747   003818  0100               	movlb	0	; () banked
  7748   00381A  5163               	movf	LCD_Chr_Cp@letra& (0+255),w,b
  7749   00381C  ECB7  F015         	call	_enviar_dato
  7750   003820                     
  7751                           ;LIBRERIA_LCD.c: 92:     LATDbits.LATD0=0;
  7752   003820  908C               	bcf	140,0,c	;volatile
  7753   003822  0012               	return		;funcret
  7754   003824                     __end_of_LCD_Chr_Cp:
  7755                           	callstack 0
  7756                           
  7757 ;; *************** function _LCD_Init *****************
  7758 ;; Defined at:
  7759 ;;		line 5 in file "LIBRERIA_LCD.c"
  7760 ;; Parameters:    Size  Location     Type
  7761 ;;		None
  7762 ;; Auto vars:     Size  Location     Type
  7763 ;;		None
  7764 ;; Return value:  Size  Location     Type
  7765 ;;                  1    wreg      void 
  7766 ;; Registers used:
  7767 ;;		wreg, status,2, status,0, cstack
  7768 ;; Tracked objects:
  7769 ;;		On entry : 0/0
  7770 ;;		On exit  : 0/0
  7771 ;;		Unchanged: 0/0
  7772 ;; Data sizes:     COMRAM   BANK0   BANK1   BANK2   BANK3   BANK4   BANK5   BANK6   BANK7
  7773 ;;      Params:         0       0       0       0       0       0       0       0       0
  7774 ;;      Locals:         0       0       0       0       0       0       0       0       0
  7775 ;;      Temps:          0       1       0       0       0       0       0       0       0
  7776 ;;      Totals:         0       1       0       0       0       0       0       0       0
  7777 ;;Total ram usage:        1 bytes
  7778 ;; Hardware stack levels used: 1
  7779 ;; Hardware stack levels required when called: 3
  7780 ;; This function calls:
  7781 ;;		_enviar_dato
  7782 ;; This function is called by:
  7783 ;;		_main
  7784 ;; This function uses a non-reentrant model
  7785 ;;
  7786                           
  7787                           	psect	text33
  7788   0032CA                     __ptext33:
  7789                           	callstack 0
  7790   0032CA                     _LCD_Init:
  7791                           	callstack 27
  7792   0032CA                     
  7793                           ;LIBRERIA_LCD.c: 7:     TRISDbits.RD0=0;
  7794   0032CA  9095               	bcf	149,0,c	;volatile
  7795                           
  7796                           ;LIBRERIA_LCD.c: 8:     TRISDbits.RD1=0;
  7797   0032CC  9295               	bcf	149,1,c	;volatile
  7798                           
  7799                           ;LIBRERIA_LCD.c: 9:     TRISDbits.RD4=0;
  7800   0032CE  9895               	bcf	149,4,c	;volatile
  7801                           
  7802                           ;LIBRERIA_LCD.c: 10:     TRISDbits.RD5=0;
  7803   0032D0  9A95               	bcf	149,5,c	;volatile
  7804                           
  7805                           ;LIBRERIA_LCD.c: 11:     TRISDbits.RD6=0;
  7806   0032D2  9C95               	bcf	149,6,c	;volatile
  7807                           
  7808                           ;LIBRERIA_LCD.c: 12:     TRISDbits.RD7=0;
  7809   0032D4  9E95               	bcf	149,7,c	;volatile
  7810                           
  7811                           ;LIBRERIA_LCD.c: 13:     LATDbits.LATD0=0;
  7812   0032D6  908C               	bcf	140,0,c	;volatile
  7813   0032D8                     
  7814                           ;LIBRERIA_LCD.c: 14:     _delay((unsigned long)((15)*(4000000L/4000.0)));
  7815   0032D8  0E14               	movlw	20
  7816   0032DA  0100               	movlb	0	; () banked
  7817   0032DC  6F63               	movwf	??_LCD_Init& (0+255),b
  7818   0032DE  0E79               	movlw	121
  7819   0032E0                     u4067:
  7820   0032E0  2EE8               	decfsz	wreg,f,c
  7821   0032E2  D7FE               	bra	u4067
  7822   0032E4  2F63               	decfsz	??_LCD_Init& (0+255),f,b
  7823   0032E6  D7FC               	bra	u4067
  7824   0032E8  D000               	nop2	
  7825   0032EA                     
  7826                           ;LIBRERIA_LCD.c: 16:     enviar_dato(0x30);
  7827   0032EA  0E30               	movlw	48
  7828   0032EC  ECB7  F015         	call	_enviar_dato
  7829   0032F0                     
  7830                           ;LIBRERIA_LCD.c: 17:     _delay((unsigned long)((5)*(4000000L/4000.0)));
  7831   0032F0  0E07               	movlw	7
  7832   0032F2  0100               	movlb	0	; () banked
  7833   0032F4  6F63               	movwf	??_LCD_Init& (0+255),b
  7834   0032F6  0E7D               	movlw	125
  7835   0032F8                     u4077:
  7836   0032F8  2EE8               	decfsz	wreg,f,c
  7837   0032FA  D7FE               	bra	u4077
  7838   0032FC  2F63               	decfsz	??_LCD_Init& (0+255),f,b
  7839   0032FE  D7FC               	bra	u4077
  7840                           
  7841                           ;LIBRERIA_LCD.c: 18:     enviar_dato(0x30);
  7842   003300  0E30               	movlw	48
  7843   003302  ECB7  F015         	call	_enviar_dato
  7844   003306                     
  7845                           ;LIBRERIA_LCD.c: 19:     _delay((unsigned long)((100)*(4000000L/4000000.0)));
  7846   003306  0E21               	movlw	33
  7847   003308                     u4087:
  7848   003308  2EE8               	decfsz	wreg,f,c
  7849   00330A  D7FE               	bra	u4087
  7850   00330C  F000               	nop	
  7851   00330E                     
  7852                           ;LIBRERIA_LCD.c: 20:     enviar_dato(0x32);
  7853   00330E  0E32               	movlw	50
  7854   003310  ECB7  F015         	call	_enviar_dato
  7855                           
  7856                           ;LIBRERIA_LCD.c: 21:     _delay((unsigned long)((100)*(4000000L/4000000.0)));
  7857   003314  0E21               	movlw	33
  7858   003316                     u4097:
  7859   003316  2EE8               	decfsz	wreg,f,c
  7860   003318  D7FE               	bra	u4097
  7861   00331A  F000               	nop	
  7862                           
  7863                           ;LIBRERIA_LCD.c: 24:     _delay((unsigned long)((100)*(4000000L/4000000.0)));
  7864   00331C  0E21               	movlw	33
  7865   00331E                     u4107:
  7866   00331E  2EE8               	decfsz	wreg,f,c
  7867   003320  D7FE               	bra	u4107
  7868   003322  F000               	nop	
  7869   003324                     
  7870                           ;LIBRERIA_LCD.c: 25:     enviar_dato(0x2B);
  7871   003324  0E2B               	movlw	43
  7872   003326  ECB7  F015         	call	_enviar_dato
  7873   00332A                     
  7874                           ;LIBRERIA_LCD.c: 26:     _delay((unsigned long)((100)*(4000000L/4000000.0)));
  7875   00332A  0E21               	movlw	33
  7876   00332C                     u4117:
  7877   00332C  2EE8               	decfsz	wreg,f,c
  7878   00332E  D7FE               	bra	u4117
  7879   003330  F000               	nop	
  7880                           
  7881                           ;LIBRERIA_LCD.c: 27:     enviar_dato(0x08);
  7882   003332  0E08               	movlw	8
  7883   003334  ECB7  F015         	call	_enviar_dato
  7884   003338                     
  7885                           ;LIBRERIA_LCD.c: 28:     _delay((unsigned long)((100)*(4000000L/4000000.0)));
  7886   003338  0E21               	movlw	33
  7887   00333A                     u4127:
  7888   00333A  2EE8               	decfsz	wreg,f,c
  7889   00333C  D7FE               	bra	u4127
  7890   00333E  F000               	nop	
  7891   003340                     
  7892                           ;LIBRERIA_LCD.c: 29:     enviar_dato(0x0F);
  7893   003340  0E0F               	movlw	15
  7894   003342  ECB7  F015         	call	_enviar_dato
  7895                           
  7896                           ;LIBRERIA_LCD.c: 30:     _delay((unsigned long)((100)*(4000000L/4000000.0)));
  7897   003346  0E21               	movlw	33
  7898   003348                     u4137:
  7899   003348  2EE8               	decfsz	wreg,f,c
  7900   00334A  D7FE               	bra	u4137
  7901   00334C  F000               	nop	
  7902   00334E                     
  7903                           ;LIBRERIA_LCD.c: 31:     enviar_dato(0x01);
  7904   00334E  0E01               	movlw	1
  7905   003350  ECB7  F015         	call	_enviar_dato
  7906   003354                     
  7907                           ;LIBRERIA_LCD.c: 32:     _delay((unsigned long)((100)*(4000000L/4000000.0)));
  7908   003354  0E21               	movlw	33
  7909   003356                     u4147:
  7910   003356  2EE8               	decfsz	wreg,f,c
  7911   003358  D7FE               	bra	u4147
  7912   00335A  F000               	nop	
  7913                           
  7914                           ;LIBRERIA_LCD.c: 33:     enviar_dato(0x06);
  7915   00335C  0E06               	movlw	6
  7916   00335E  ECB7  F015         	call	_enviar_dato
  7917   003362                     
  7918                           ;LIBRERIA_LCD.c: 34:     _delay((unsigned long)((100)*(4000000L/4000000.0)));
  7919   003362  0E21               	movlw	33
  7920   003364                     u4157:
  7921   003364  2EE8               	decfsz	wreg,f,c
  7922   003366  D7FE               	bra	u4157
  7923   003368  F000               	nop	
  7924   00336A                     
  7925                           ;LIBRERIA_LCD.c: 36:     enviar_dato(0x0F);
  7926   00336A  0E0F               	movlw	15
  7927   00336C  ECB7  F015         	call	_enviar_dato
  7928                           
  7929                           ;LIBRERIA_LCD.c: 37:     _delay((unsigned long)((100)*(4000000L/4000000.0)));
  7930   003370  0E21               	movlw	33
  7931   003372                     u4167:
  7932   003372  2EE8               	decfsz	wreg,f,c
  7933   003374  D7FE               	bra	u4167
  7934   003376  F000               	nop	
  7935   003378  0012               	return		;funcret
  7936   00337A                     __end_of_LCD_Init:
  7937                           	callstack 0
  7938                           
  7939 ;; *************** function _enviar_dato *****************
  7940 ;; Defined at:
  7941 ;;		line 42 in file "LIBRERIA_LCD.c"
  7942 ;; Parameters:    Size  Location     Type
  7943 ;;  cmd             1    wreg     unsigned char 
  7944 ;; Auto vars:     Size  Location     Type
  7945 ;;  cmd             1    2[BANK0 ] unsigned char 
  7946 ;; Return value:  Size  Location     Type
  7947 ;;                  1    wreg      void 
  7948 ;; Registers used:
  7949 ;;		wreg, status,2, status,0
  7950 ;; Tracked objects:
  7951 ;;		On entry : 0/0
  7952 ;;		On exit  : 0/0
  7953 ;;		Unchanged: 0/0
  7954 ;; Data sizes:     COMRAM   BANK0   BANK1   BANK2   BANK3   BANK4   BANK5   BANK6   BANK7
  7955 ;;      Params:         0       0       0       0       0       0       0       0       0
  7956 ;;      Locals:         0       1       0       0       0       0       0       0       0
  7957 ;;      Temps:          0       2       0       0       0       0       0       0       0
  7958 ;;      Totals:         0       3       0       0       0       0       0       0       0
  7959 ;;Total ram usage:        3 bytes
  7960 ;; Hardware stack levels used: 1
  7961 ;; Hardware stack levels required when called: 2
  7962 ;; This function calls:
  7963 ;;		Nothing
  7964 ;; This function is called by:
  7965 ;;		_LCD_Init
  7966 ;;		_LCD_Chr_Cp
  7967 ;;		_LCD_Cmd
  7968 ;;		_LCD_Chr
  7969 ;; This function uses a non-reentrant model
  7970 ;;
  7971                           
  7972                           	psect	text34
  7973   002B6E                     __ptext34:
  7974                           	callstack 0
  7975   002B6E                     _enviar_dato:
  7976                           	callstack 25
  7977                           
  7978                           ;incstack = 0
  7979                           ;enviar_dato@cmd stored from wreg
  7980   002B6E  0100               	movlb	0	; () banked
  7981   002B70  6F62               	movwf	enviar_dato@cmd& (0+255),b
  7982   002B72                     
  7983                           ;LIBRERIA_LCD.c: 43:     TRISDbits.RD4=0;
  7984   002B72  9895               	bcf	149,4,c	;volatile
  7985                           
  7986                           ;LIBRERIA_LCD.c: 44:     TRISDbits.RD5=0;
  7987   002B74  9A95               	bcf	149,5,c	;volatile
  7988                           
  7989                           ;LIBRERIA_LCD.c: 45:     TRISDbits.RD6=0;
  7990   002B76  9C95               	bcf	149,6,c	;volatile
  7991                           
  7992                           ;LIBRERIA_LCD.c: 46:     TRISDbits.RD7=0;
  7993   002B78  9E95               	bcf	149,7,c	;volatile
  7994                           
  7995                           ;LIBRERIA_LCD.c: 47:     LATDbits.LATD4=0;
  7996   002B7A  988C               	bcf	140,4,c	;volatile
  7997                           
  7998                           ;LIBRERIA_LCD.c: 48:     LATDbits.LATD5=0;
  7999   002B7C  9A8C               	bcf	140,5,c	;volatile
  8000                           
  8001                           ;LIBRERIA_LCD.c: 49:     LATDbits.LATD6=0;
  8002   002B7E  9C8C               	bcf	140,6,c	;volatile
  8003                           
  8004                           ;LIBRERIA_LCD.c: 50:     LATDbits.LATD7=0;
  8005   002B80  9E8C               	bcf	140,7,c	;volatile
  8006                           
  8007                           ;LIBRERIA_LCD.c: 52:     LATDbits.LATD1=0;
  8008   002B82  928C               	bcf	140,1,c	;volatile
  8009   002B84                     
  8010                           ;LIBRERIA_LCD.c: 53:     _delay((unsigned long)((100)*(4000000L/4000000.0)));
  8011   002B84  0E21               	movlw	33
  8012   002B86                     u4177:
  8013   002B86  2EE8               	decfsz	wreg,f,c
  8014   002B88  D7FE               	bra	u4177
  8015   002B8A  F000               	nop	
  8016   002B8C                     
  8017                           ;LIBRERIA_LCD.c: 55:     LATDbits.LATD4=(cmd>>4)&0x01;
  8018   002B8C  C062  F060         	movff	enviar_dato@cmd,??_enviar_dato
  8019   002B90  0100               	movlb	0	; () banked
  8020   002B92  3B60               	swapf	??_enviar_dato& (0+255),f,b
  8021   002B94  0E0F               	movlw	15
  8022   002B96  1760               	andwf	??_enviar_dato& (0+255),f,b
  8023   002B98  0E01               	movlw	1
  8024   002B9A  1760               	andwf	??_enviar_dato& (0+255),f,b
  8025   002B9C  3B60               	swapf	??_enviar_dato& (0+255),f,b
  8026   002B9E  508C               	movf	140,w,c	;volatile
  8027   002BA0  1960               	xorwf	??_enviar_dato& (0+255),w,b
  8028   002BA2  0BEF               	andlw	-17
  8029   002BA4  1960               	xorwf	??_enviar_dato& (0+255),w,b
  8030   002BA6  6E8C               	movwf	140,c	;volatile
  8031   002BA8                     
  8032                           ; BSR set to: 0
  8033                           ;LIBRERIA_LCD.c: 56:     LATDbits.LATD5=(cmd>>5)&0x01;
  8034   002BA8  C062  F060         	movff	enviar_dato@cmd,??_enviar_dato
  8035   002BAC  0E05               	movlw	5
  8036   002BAE  6F61               	movwf	(??_enviar_dato+1)& (0+255),b
  8037   002BB0                     u2305:
  8038   002BB0  90D8               	bcf	status,0,c
  8039   002BB2  3360               	rrcf	??_enviar_dato& (0+255),f,b
  8040   002BB4  2F61               	decfsz	(??_enviar_dato+1)& (0+255),f,b
  8041   002BB6  EFD8  F015         	goto	u2305
  8042   002BBA  0E01               	movlw	1
  8043   002BBC  1760               	andwf	??_enviar_dato& (0+255),f,b
  8044   002BBE  3B60               	swapf	??_enviar_dato& (0+255),f,b
  8045   002BC0  4760               	rlncf	??_enviar_dato& (0+255),f,b
  8046   002BC2  508C               	movf	140,w,c	;volatile
  8047   002BC4  1960               	xorwf	??_enviar_dato& (0+255),w,b
  8048   002BC6  0BDF               	andlw	-33
  8049   002BC8  1960               	xorwf	??_enviar_dato& (0+255),w,b
  8050   002BCA  6E8C               	movwf	140,c	;volatile
  8051   002BCC                     
  8052                           ; BSR set to: 0
  8053                           ;LIBRERIA_LCD.c: 57:     LATDbits.LATD6=(cmd>>6)&0x01;
  8054   002BCC  C062  F060         	movff	enviar_dato@cmd,??_enviar_dato
  8055   002BD0  0E06               	movlw	6
  8056   002BD2  6F61               	movwf	(??_enviar_dato+1)& (0+255),b
  8057   002BD4                     u2315:
  8058   002BD4  90D8               	bcf	status,0,c
  8059   002BD6  3360               	rrcf	??_enviar_dato& (0+255),f,b
  8060   002BD8  2F61               	decfsz	(??_enviar_dato+1)& (0+255),f,b
  8061   002BDA  EFEA  F015         	goto	u2315
  8062   002BDE  0E01               	movlw	1
  8063   002BE0  1760               	andwf	??_enviar_dato& (0+255),f,b
  8064   002BE2  3B60               	swapf	??_enviar_dato& (0+255),f,b
  8065   002BE4  4760               	rlncf	??_enviar_dato& (0+255),f,b
  8066   002BE6  4760               	rlncf	??_enviar_dato& (0+255),f,b
  8067   002BE8  508C               	movf	140,w,c	;volatile
  8068   002BEA  1960               	xorwf	??_enviar_dato& (0+255),w,b
  8069   002BEC  0BBF               	andlw	-65
  8070   002BEE  1960               	xorwf	??_enviar_dato& (0+255),w,b
  8071   002BF0  6E8C               	movwf	140,c	;volatile
  8072   002BF2                     
  8073                           ; BSR set to: 0
  8074                           ;LIBRERIA_LCD.c: 58:     LATDbits.LATD7=(cmd>>7)&0x01;
  8075   002BF2  6B60               	clrf	??_enviar_dato& (0+255),b
  8076   002BF4  AF62               	btfss	enviar_dato@cmd& (0+255),7,b
  8077   002BF6  D001               	bra	u2325
  8078   002BF8  2B60               	incf	??_enviar_dato& (0+255),f,b
  8079   002BFA                     u2325:
  8080   002BFA  0E01               	movlw	1
  8081   002BFC  1760               	andwf	??_enviar_dato& (0+255),f,b
  8082   002BFE  3360               	rrcf	??_enviar_dato& (0+255),f,b
  8083   002C00  3360               	rrcf	??_enviar_dato& (0+255),f,b
  8084   002C02  508C               	movf	140,w,c	;volatile
  8085   002C04  1960               	xorwf	??_enviar_dato& (0+255),w,b
  8086   002C06  0B7F               	andlw	-129
  8087   002C08  1960               	xorwf	??_enviar_dato& (0+255),w,b
  8088   002C0A  6E8C               	movwf	140,c	;volatile
  8089   002C0C                     
  8090                           ; BSR set to: 0
  8091                           ;LIBRERIA_LCD.c: 60:     LATDbits.LATD1=1;
  8092   002C0C  828C               	bsf	140,1,c	;volatile
  8093   002C0E                     
  8094                           ; BSR set to: 0
  8095                           ;LIBRERIA_LCD.c: 61:     _delay((unsigned long)((100)*(4000000L/4000000.0)));
  8096   002C0E  0E21               	movlw	33
  8097   002C10                     u4187:
  8098   002C10  2EE8               	decfsz	wreg,f,c
  8099   002C12  D7FE               	bra	u4187
  8100   002C14  F000               	nop	
  8101   002C16                     
  8102                           ;LIBRERIA_LCD.c: 62:     LATDbits.LATD1=0;
  8103   002C16  928C               	bcf	140,1,c	;volatile
  8104   002C18                     
  8105                           ;LIBRERIA_LCD.c: 64:     LATDbits.LATD4= cmd&0x01;
  8106   002C18  C062  F060         	movff	enviar_dato@cmd,??_enviar_dato
  8107   002C1C  0E01               	movlw	1
  8108   002C1E  0100               	movlb	0	; () banked
  8109   002C20  1760               	andwf	??_enviar_dato& (0+255),f,b
  8110   002C22  3B60               	swapf	??_enviar_dato& (0+255),f,b
  8111   002C24  508C               	movf	140,w,c	;volatile
  8112   002C26  1960               	xorwf	??_enviar_dato& (0+255),w,b
  8113   002C28  0BEF               	andlw	-17
  8114   002C2A  1960               	xorwf	??_enviar_dato& (0+255),w,b
  8115   002C2C  6E8C               	movwf	140,c	;volatile
  8116   002C2E                     
  8117                           ; BSR set to: 0
  8118                           ;LIBRERIA_LCD.c: 65:     LATDbits.LATD5=(cmd&0x0F)>>1;
  8119   002C2E  C062  F060         	movff	enviar_dato@cmd,??_enviar_dato
  8120   002C32  90D8               	bcf	status,0,c
  8121   002C34  3360               	rrcf	??_enviar_dato& (0+255),f,b
  8122   002C36  0E07               	movlw	7
  8123   002C38  1760               	andwf	??_enviar_dato& (0+255),f,b
  8124   002C3A  3B60               	swapf	??_enviar_dato& (0+255),f,b
  8125   002C3C  4760               	rlncf	??_enviar_dato& (0+255),f,b
  8126   002C3E  508C               	movf	140,w,c	;volatile
  8127   002C40  1960               	xorwf	??_enviar_dato& (0+255),w,b
  8128   002C42  0BDF               	andlw	-33
  8129   002C44  1960               	xorwf	??_enviar_dato& (0+255),w,b
  8130   002C46  6E8C               	movwf	140,c	;volatile
  8131   002C48                     
  8132                           ; BSR set to: 0
  8133                           ;LIBRERIA_LCD.c: 66:     LATDbits.LATD6=(cmd&0x0F)>>2;
  8134   002C48  C062  F060         	movff	enviar_dato@cmd,??_enviar_dato
  8135   002C4C  90D8               	bcf	status,0,c
  8136   002C4E  3360               	rrcf	??_enviar_dato& (0+255),f,b
  8137   002C50  90D8               	bcf	status,0,c
  8138   002C52  3360               	rrcf	??_enviar_dato& (0+255),f,b
  8139   002C54  0E03               	movlw	3
  8140   002C56  1760               	andwf	??_enviar_dato& (0+255),f,b
  8141   002C58  3B60               	swapf	??_enviar_dato& (0+255),f,b
  8142   002C5A  4760               	rlncf	??_enviar_dato& (0+255),f,b
  8143   002C5C  4760               	rlncf	??_enviar_dato& (0+255),f,b
  8144   002C5E  508C               	movf	140,w,c	;volatile
  8145   002C60  1960               	xorwf	??_enviar_dato& (0+255),w,b
  8146   002C62  0BBF               	andlw	-65
  8147   002C64  1960               	xorwf	??_enviar_dato& (0+255),w,b
  8148   002C66  6E8C               	movwf	140,c	;volatile
  8149   002C68                     
  8150                           ; BSR set to: 0
  8151                           ;LIBRERIA_LCD.c: 67:     LATDbits.LATD7=(cmd&0x0F)>>3;
  8152   002C68  C062  F060         	movff	enviar_dato@cmd,??_enviar_dato
  8153   002C6C  90D8               	bcf	status,0,c
  8154   002C6E  3360               	rrcf	??_enviar_dato& (0+255),f,b
  8155   002C70  90D8               	bcf	status,0,c
  8156   002C72  3360               	rrcf	??_enviar_dato& (0+255),f,b
  8157   002C74  90D8               	bcf	status,0,c
  8158   002C76  3360               	rrcf	??_enviar_dato& (0+255),f,b
  8159   002C78  0E01               	movlw	1
  8160   002C7A  1760               	andwf	??_enviar_dato& (0+255),f,b
  8161   002C7C  3360               	rrcf	??_enviar_dato& (0+255),f,b
  8162   002C7E  3360               	rrcf	??_enviar_dato& (0+255),f,b
  8163   002C80  508C               	movf	140,w,c	;volatile
  8164   002C82  1960               	xorwf	??_enviar_dato& (0+255),w,b
  8165   002C84  0B7F               	andlw	-129
  8166   002C86  1960               	xorwf	??_enviar_dato& (0+255),w,b
  8167   002C88  6E8C               	movwf	140,c	;volatile
  8168   002C8A                     
  8169                           ; BSR set to: 0
  8170                           ;LIBRERIA_LCD.c: 69:     LATDbits.LATD1=1;
  8171   002C8A  828C               	bsf	140,1,c	;volatile
  8172   002C8C                     
  8173                           ; BSR set to: 0
  8174                           ;LIBRERIA_LCD.c: 70:     _delay((unsigned long)((100)*(4000000L/4000000.0)));
  8175   002C8C  0E21               	movlw	33
  8176   002C8E                     u4197:
  8177   002C8E  2EE8               	decfsz	wreg,f,c
  8178   002C90  D7FE               	bra	u4197
  8179   002C92  F000               	nop	
  8180   002C94                     
  8181                           ;LIBRERIA_LCD.c: 71:     LATDbits.LATD1=0;
  8182   002C94  928C               	bcf	140,1,c	;volatile
  8183   002C96                     
  8184                           ;LIBRERIA_LCD.c: 73:     TRISDbits.RD4=1;
  8185   002C96  8895               	bsf	149,4,c	;volatile
  8186   002C98                     
  8187                           ;LIBRERIA_LCD.c: 74:     TRISDbits.RD5=1;
  8188   002C98  8A95               	bsf	149,5,c	;volatile
  8189   002C9A                     
  8190                           ;LIBRERIA_LCD.c: 75:     TRISDbits.RD6=1;
  8191   002C9A  8C95               	bsf	149,6,c	;volatile
  8192   002C9C                     
  8193                           ;LIBRERIA_LCD.c: 76:     TRISDbits.RD7=1;
  8194   002C9C  8E95               	bsf	149,7,c	;volatile
  8195   002C9E  0012               	return		;funcret
  8196   002CA0                     __end_of_enviar_dato:
  8197                           	callstack 0
  8198                           
  8199 ;; *************** function _INTERRUPTS *****************
  8200 ;; Defined at:
  8201 ;;		line 36 in file "main.c"
  8202 ;; Parameters:    Size  Location     Type
  8203 ;;		None
  8204 ;; Auto vars:     Size  Location     Type
  8205 ;;		None
  8206 ;; Return value:  Size  Location     Type
  8207 ;;                  1    wreg      void 
  8208 ;; Registers used:
  8209 ;;		wreg, status,2, status,0, prodl, prodh, cstack
  8210 ;; Tracked objects:
  8211 ;;		On entry : 0/0
  8212 ;;		On exit  : 0/0
  8213 ;;		Unchanged: 0/0
  8214 ;; Data sizes:     COMRAM   BANK0   BANK1   BANK2   BANK3   BANK4   BANK5   BANK6   BANK7
  8215 ;;      Params:         0       0       0       0       0       0       0       0       0
  8216 ;;      Locals:         0       0       0       0       0       0       0       0       0
  8217 ;;      Temps:          2       0       0       0       0       0       0       0       0
  8218 ;;      Totals:         2       0       0       0       0       0       0       0       0
  8219 ;;Total ram usage:        2 bytes
  8220 ;; Hardware stack levels used: 1
  8221 ;; Hardware stack levels required when called: 1
  8222 ;; This function calls:
  8223 ;;		i2___flmul
  8224 ;;		i2___fltol
  8225 ;;		i2___wmul
  8226 ;;		i2___xxtofl
  8227 ;; This function is called by:
  8228 ;;		Interrupt level 2
  8229 ;; This function uses a non-reentrant model
  8230 ;;
  8231                           
  8232                           	psect	intcode
  8233   000008                     __pintcode:
  8234                           	callstack 0
  8235   000008                     _INTERRUPTS:
  8236                           	callstack 21
  8237                           
  8238                           ;incstack = 0
  8239   000008  825D               	bsf	int$flags,1,c	;set compiler interrupt flag (level 2)
  8240   00000A  EDB4  F018         	call	int_func,f	;refresh shadow registers
  8241                           
  8242                           	psect	intcode_body
  8243   003168                     __pintcode_body:
  8244                           	callstack 21
  8245   003168                     int_func:
  8246                           	callstack 21
  8247   003168  0006               	pop		; remove dummy address from shadow register refresh
  8248   00316A  CFF3 F038          	movff	prodl,??_INTERRUPTS
  8249   00316E  CFF4 F039          	movff	prodh,??_INTERRUPTS+1
  8250   003172                     
  8251                           ;main.c: 37:     if (INTCONbits.INT0IF) {
  8252   003172  A2F2               	btfss	242,1,c	;volatile
  8253   003174  EFBE  F018         	goto	i2u402_41
  8254   003178  EFC0  F018         	goto	i2u402_40
  8255   00317C                     i2u402_41:
  8256   00317C  EFC3  F018         	goto	i2l3929
  8257   003180                     i2u402_40:
  8258   003180                     
  8259                           ;main.c: 38:         contador++;
  8260   003180  4A5B               	infsnz	_contador^0,f,c
  8261   003182  2A5C               	incf	(_contador+1)^0,f,c
  8262   003184                     
  8263                           ;main.c: 39:         INTCONbits.INT0IF = 0;
  8264   003184  92F2               	bcf	242,1,c	;volatile
  8265   003186                     i2l3929:
  8266                           
  8267                           ;main.c: 42:     if (TMR0IF) {
  8268   003186  A4F2               	btfss	4082,2,c	;volatile
  8269   003188  EFC8  F018         	goto	i2u403_41
  8270   00318C  EFCA  F018         	goto	i2u403_40
  8271   003190                     i2u403_41:
  8272   003190  EF07  F019         	goto	i2l77
  8273   003194                     i2u403_40:
  8274   003194                     
  8275                           ;main.c: 44:         TMR0H = 0x3C;
  8276   003194  0E3C               	movlw	60
  8277   003196  6ED7               	movwf	215,c	;volatile
  8278                           
  8279                           ;main.c: 45:         TMR0L = 0xB0;
  8280   003198  0EB0               	movlw	176
  8281   00319A  6ED6               	movwf	214,c	;volatile
  8282   00319C                     
  8283                           ;main.c: 46:         flagTimer0 ++;
  8284   00319C  2A5A               	incf	_flagTimer0^0,f,c
  8285   00319E                     
  8286                           ;main.c: 49:             PV_RPM = (10*contador * factorDeConversion);
  8287   00319E  C042  F019         	movff	_factorDeConversion,i2___flmul@a
  8288   0031A2  C043  F01A         	movff	_factorDeConversion+1,i2___flmul@a+1
  8289   0031A6  C044  F01B         	movff	_factorDeConversion+2,i2___flmul@a+2
  8290   0031AA  C045  F01C         	movff	_factorDeConversion+3,i2___flmul@a+3
  8291   0031AE  C05B  F001         	movff	_contador,i2___wmul@multiplier
  8292   0031B2  C05C  F002         	movff	_contador+1,i2___wmul@multiplier+1
  8293   0031B6  0E00               	movlw	0
  8294   0031B8  6E04               	movwf	(i2___wmul@multiplicand+1)^0,c
  8295   0031BA  0E0A               	movlw	10
  8296   0031BC  6E03               	movwf	i2___wmul@multiplicand^0,c
  8297   0031BE  ECD1  F01B         	call	i2___wmul	;wreg free
  8298   0031C2  C001  F007         	movff	?i2___wmul,i2___xxtofl@val
  8299   0031C6  C002  F008         	movff	?i2___wmul+1,i2___xxtofl@val+1
  8300   0031CA  6A09               	clrf	(i2___xxtofl@val+2)^0,c
  8301   0031CC  6A0A               	clrf	(i2___xxtofl@val+3)^0,c
  8302   0031CE  0E00               	movlw	0
  8303   0031D0  ECBE  F012         	call	i2___xxtofl
  8304   0031D4  C007  F015         	movff	?i2___xxtofl,i2___flmul@b
  8305   0031D8  C008  F016         	movff	?i2___xxtofl+1,i2___flmul@b+1
  8306   0031DC  C009  F017         	movff	?i2___xxtofl+2,i2___flmul@b+2
  8307   0031E0  C00A  F018         	movff	?i2___xxtofl+3,i2___flmul@b+3
  8308   0031E4  EC9D  F008         	call	i2___flmul	;wreg free
  8309   0031E8  C015  F02E         	movff	?i2___flmul,i2___fltol@f1
  8310   0031EC  C016  F02F         	movff	?i2___flmul+1,i2___fltol@f1+1
  8311   0031F0  C017  F030         	movff	?i2___flmul+2,i2___fltol@f1+2
  8312   0031F4  C018  F031         	movff	?i2___flmul+3,i2___fltol@f1+3
  8313   0031F8  EC57  F017         	call	i2___fltol	;wreg free
  8314   0031FC  C02E  F0F2         	movff	?i2___fltol,_PV_RPM
  8315   003200  C02F  F0F3         	movff	?i2___fltol+1,_PV_RPM+1
  8316   003204                     
  8317                           ;main.c: 50:             contador = 0;
  8318   003204  0E00               	movlw	0
  8319   003206  6E5C               	movwf	(_contador+1)^0,c
  8320   003208  0E00               	movlw	0
  8321   00320A  6E5B               	movwf	_contador^0,c
  8322   00320C                     
  8323                           ;main.c: 52:         TMR0IF = 0;
  8324   00320C  94F2               	bcf	4082,2,c	;volatile
  8325   00320E                     i2l77:
  8326   00320E  C039  FFF4         	movff	??_INTERRUPTS+1,prodh
  8327   003212  C038  FFF3         	movff	??_INTERRUPTS,prodl
  8328   003216  925D               	bcf	int$flags,1,c	;clear compiler interrupt flag (level 2)
  8329   003218  0011               	retfie		f
  8330   00321A                     __end_of_INTERRUPTS:
  8331                           	callstack 0
  8332                           
  8333 ;; *************** function i2___xxtofl *****************
  8334 ;; Defined at:
  8335 ;;		line 10 in file "C:\Program Files\Microchip\xc8\v2.40\pic\sources\c99\common\xxtofl.c"
  8336 ;; Parameters:    Size  Location     Type
  8337 ;;  sign            1    wreg     unsigned char 
  8338 ;;  val             4    6[COMRAM] long 
  8339 ;; Auto vars:     Size  Location     Type
  8340 ;;  sign            1   14[COMRAM] unsigned char 
  8341 ;;  arg             4   16[COMRAM] unsigned long 
  8342 ;;  exp             1   15[COMRAM] unsigned char 
  8343 ;; Return value:  Size  Location     Type
  8344 ;;                  4    6[COMRAM] unsigned char 
  8345 ;; Registers used:
  8346 ;;		wreg, status,2, status,0
  8347 ;; Tracked objects:
  8348 ;;		On entry : 0/0
  8349 ;;		On exit  : 0/0
  8350 ;;		Unchanged: 0/0
  8351 ;; Data sizes:     COMRAM   BANK0   BANK1   BANK2   BANK3   BANK4   BANK5   BANK6   BANK7
  8352 ;;      Params:         4       0       0       0       0       0       0       0       0
  8353 ;;      Locals:         6       0       0       0       0       0       0       0       0
  8354 ;;      Temps:          4       0       0       0       0       0       0       0       0
  8355 ;;      Totals:        14       0       0       0       0       0       0       0       0
  8356 ;;Total ram usage:       14 bytes
  8357 ;; Hardware stack levels used: 1
  8358 ;; This function calls:
  8359 ;;		Nothing
  8360 ;; This function is called by:
  8361 ;;		_INTERRUPTS
  8362 ;; This function uses a non-reentrant model
  8363 ;;
  8364                           
  8365                           	psect	text36
  8366   00257C                     __ptext36:
  8367                           	callstack 0
  8368   00257C                     i2___xxtofl:
  8369                           	callstack 21
  8370                           
  8371                           ;incstack = 0
  8372                           ;i2___xxtofl@sign stored from wreg
  8373   00257C  6E0F               	movwf	i2___xxtofl@sign^0,c
  8374   00257E  500F               	movf	i2___xxtofl@sign^0,w,c
  8375   002580  B4D8               	btfsc	status,2,c
  8376   002582  EFC5  F012         	goto	i2u392_41
  8377   002586  EFC7  F012         	goto	i2u392_40
  8378   00258A                     i2u392_41:
  8379   00258A  EFE9  F012         	goto	i2l839
  8380   00258E                     i2u392_40:
  8381   00258E  BE0A               	btfsc	(i2___xxtofl@val+3)^0,7,c
  8382   002590  EFCE  F012         	goto	i2u393_40
  8383   002594  EFCC  F012         	goto	i2u393_41
  8384   002598                     i2u393_41:
  8385   002598  EFE9  F012         	goto	i2l839
  8386   00259C                     i2u393_40:
  8387   00259C  C007  F00B         	movff	i2___xxtofl@val,??i2___xxtofl
  8388   0025A0  C008  F00C         	movff	i2___xxtofl@val+1,??i2___xxtofl+1
  8389   0025A4  C009  F00D         	movff	i2___xxtofl@val+2,??i2___xxtofl+2
  8390   0025A8  C00A  F00E         	movff	i2___xxtofl@val+3,??i2___xxtofl+3
  8391   0025AC  1E0B               	comf	??i2___xxtofl^0,f,c
  8392   0025AE  1E0C               	comf	(??i2___xxtofl+1)^0,f,c
  8393   0025B0  1E0D               	comf	(??i2___xxtofl+2)^0,f,c
  8394   0025B2  1E0E               	comf	(??i2___xxtofl+3)^0,f,c
  8395   0025B4  2A0B               	incf	??i2___xxtofl^0,f,c
  8396   0025B6  0E00               	movlw	0
  8397   0025B8  220C               	addwfc	(??i2___xxtofl+1)^0,f,c
  8398   0025BA  220D               	addwfc	(??i2___xxtofl+2)^0,f,c
  8399   0025BC  220E               	addwfc	(??i2___xxtofl+3)^0,f,c
  8400   0025BE  C00B  F011         	movff	??i2___xxtofl,i2___xxtofl@arg
  8401   0025C2  C00C  F012         	movff	??i2___xxtofl+1,i2___xxtofl@arg+1
  8402   0025C6  C00D  F013         	movff	??i2___xxtofl+2,i2___xxtofl@arg+2
  8403   0025CA  C00E  F014         	movff	??i2___xxtofl+3,i2___xxtofl@arg+3
  8404   0025CE  EFF1  F012         	goto	i2l3883
  8405   0025D2                     i2l839:
  8406   0025D2  C007  F011         	movff	i2___xxtofl@val,i2___xxtofl@arg
  8407   0025D6  C008  F012         	movff	i2___xxtofl@val+1,i2___xxtofl@arg+1
  8408   0025DA  C009  F013         	movff	i2___xxtofl@val+2,i2___xxtofl@arg+2
  8409   0025DE  C00A  F014         	movff	i2___xxtofl@val+3,i2___xxtofl@arg+3
  8410   0025E2                     i2l3883:
  8411   0025E2  5007               	movf	i2___xxtofl@val^0,w,c
  8412   0025E4  1008               	iorwf	(i2___xxtofl@val+1)^0,w,c
  8413   0025E6  1009               	iorwf	(i2___xxtofl@val+2)^0,w,c
  8414   0025E8  100A               	iorwf	(i2___xxtofl@val+3)^0,w,c
  8415   0025EA  A4D8               	btfss	status,2,c
  8416   0025EC  EFFA  F012         	goto	i2u394_41
  8417   0025F0  EFFC  F012         	goto	i2u394_40
  8418   0025F4                     i2u394_41:
  8419   0025F4  EF06  F013         	goto	i2l3889
  8420   0025F8                     i2u394_40:
  8421   0025F8  0E00               	movlw	0
  8422   0025FA  6E07               	movwf	?i2___xxtofl^0,c
  8423   0025FC  0E00               	movlw	0
  8424   0025FE  6E08               	movwf	(?i2___xxtofl+1)^0,c
  8425   002600  0E00               	movlw	0
  8426   002602  6E09               	movwf	(?i2___xxtofl+2)^0,c
  8427   002604  0E00               	movlw	0
  8428   002606  6E0A               	movwf	(?i2___xxtofl+3)^0,c
  8429   002608  EF97  F013         	goto	i2l842
  8430   00260C                     i2l3889:
  8431   00260C  0E96               	movlw	150
  8432   00260E  6E10               	movwf	i2___xxtofl@exp^0,c
  8433   002610  EF10  F013         	goto	i2l3893
  8434   002614                     i2l3891:
  8435   002614  2A10               	incf	i2___xxtofl@exp^0,f,c
  8436   002616  90D8               	bcf	status,0,c
  8437   002618  3214               	rrcf	(i2___xxtofl@arg+3)^0,f,c
  8438   00261A  3213               	rrcf	(i2___xxtofl@arg+2)^0,f,c
  8439   00261C  3212               	rrcf	(i2___xxtofl@arg+1)^0,f,c
  8440   00261E  3211               	rrcf	i2___xxtofl@arg^0,f,c
  8441   002620                     i2l3893:
  8442   002620  0E00               	movlw	0
  8443   002622  1411               	andwf	i2___xxtofl@arg^0,w,c
  8444   002624  6E0B               	movwf	??i2___xxtofl^0,c
  8445   002626  0E00               	movlw	0
  8446   002628  1412               	andwf	(i2___xxtofl@arg+1)^0,w,c
  8447   00262A  6E0C               	movwf	(??i2___xxtofl+1)^0,c
  8448   00262C  0E00               	movlw	0
  8449   00262E  1413               	andwf	(i2___xxtofl@arg+2)^0,w,c
  8450   002630  6E0D               	movwf	(??i2___xxtofl+2)^0,c
  8451   002632  0EFE               	movlw	254
  8452   002634  1414               	andwf	(i2___xxtofl@arg+3)^0,w,c
  8453   002636  6E0E               	movwf	(??i2___xxtofl+3)^0,c
  8454   002638  500B               	movf	??i2___xxtofl^0,w,c
  8455   00263A  100C               	iorwf	(??i2___xxtofl+1)^0,w,c
  8456   00263C  100D               	iorwf	(??i2___xxtofl+2)^0,w,c
  8457   00263E  100E               	iorwf	(??i2___xxtofl+3)^0,w,c
  8458   002640  A4D8               	btfss	status,2,c
  8459   002642  EF25  F013         	goto	i2u395_41
  8460   002646  EF27  F013         	goto	i2u395_40
  8461   00264A                     i2u395_41:
  8462   00264A  EF0A  F013         	goto	i2l3891
  8463   00264E                     i2u395_40:
  8464   00264E  EF35  F013         	goto	i2l846
  8465   002652                     i2l3895:
  8466   002652  2A10               	incf	i2___xxtofl@exp^0,f,c
  8467   002654  0E01               	movlw	1
  8468   002656  2611               	addwf	i2___xxtofl@arg^0,f,c
  8469   002658  0E00               	movlw	0
  8470   00265A  2212               	addwfc	(i2___xxtofl@arg+1)^0,f,c
  8471   00265C  2213               	addwfc	(i2___xxtofl@arg+2)^0,f,c
  8472   00265E  2214               	addwfc	(i2___xxtofl@arg+3)^0,f,c
  8473   002660  90D8               	bcf	status,0,c
  8474   002662  3214               	rrcf	(i2___xxtofl@arg+3)^0,f,c
  8475   002664  3213               	rrcf	(i2___xxtofl@arg+2)^0,f,c
  8476   002666  3212               	rrcf	(i2___xxtofl@arg+1)^0,f,c
  8477   002668  3211               	rrcf	i2___xxtofl@arg^0,f,c
  8478   00266A                     i2l846:
  8479   00266A  0E00               	movlw	0
  8480   00266C  1411               	andwf	i2___xxtofl@arg^0,w,c
  8481   00266E  6E0B               	movwf	??i2___xxtofl^0,c
  8482   002670  0E00               	movlw	0
  8483   002672  1412               	andwf	(i2___xxtofl@arg+1)^0,w,c
  8484   002674  6E0C               	movwf	(??i2___xxtofl+1)^0,c
  8485   002676  0E00               	movlw	0
  8486   002678  1413               	andwf	(i2___xxtofl@arg+2)^0,w,c
  8487   00267A  6E0D               	movwf	(??i2___xxtofl+2)^0,c
  8488   00267C  0EFF               	movlw	255
  8489   00267E  1414               	andwf	(i2___xxtofl@arg+3)^0,w,c
  8490   002680  6E0E               	movwf	(??i2___xxtofl+3)^0,c
  8491   002682  500B               	movf	??i2___xxtofl^0,w,c
  8492   002684  100C               	iorwf	(??i2___xxtofl+1)^0,w,c
  8493   002686  100D               	iorwf	(??i2___xxtofl+2)^0,w,c
  8494   002688  100E               	iorwf	(??i2___xxtofl+3)^0,w,c
  8495   00268A  A4D8               	btfss	status,2,c
  8496   00268C  EF4A  F013         	goto	i2u396_41
  8497   002690  EF4C  F013         	goto	i2u396_40
  8498   002694                     i2u396_41:
  8499   002694  EF29  F013         	goto	i2l3895
  8500   002698                     i2u396_40:
  8501   002698  EF54  F013         	goto	i2l3903
  8502   00269C                     i2l3901:
  8503   00269C  0610               	decf	i2___xxtofl@exp^0,f,c
  8504   00269E  90D8               	bcf	status,0,c
  8505   0026A0  3611               	rlcf	i2___xxtofl@arg^0,f,c
  8506   0026A2  3612               	rlcf	(i2___xxtofl@arg+1)^0,f,c
  8507   0026A4  3613               	rlcf	(i2___xxtofl@arg+2)^0,f,c
  8508   0026A6  3614               	rlcf	(i2___xxtofl@arg+3)^0,f,c
  8509   0026A8                     i2l3903:
  8510   0026A8  BE13               	btfsc	(i2___xxtofl@arg+2)^0,7,c
  8511   0026AA  EF59  F013         	goto	i2u397_41
  8512   0026AE  EF5B  F013         	goto	i2u397_40
  8513   0026B2                     i2u397_41:
  8514   0026B2  EF63  F013         	goto	i2l853
  8515   0026B6                     i2u397_40:
  8516   0026B6  0E02               	movlw	2
  8517   0026B8  6010               	cpfslt	i2___xxtofl@exp^0,c
  8518   0026BA  EF61  F013         	goto	i2u398_41
  8519   0026BE  EF63  F013         	goto	i2u398_40
  8520   0026C2                     i2u398_41:
  8521   0026C2  EF4E  F013         	goto	i2l3901
  8522   0026C6                     i2u398_40:
  8523   0026C6                     i2l853:
  8524   0026C6  B010               	btfsc	i2___xxtofl@exp^0,0,c
  8525   0026C8  EF68  F013         	goto	i2u399_41
  8526   0026CC  EF6A  F013         	goto	i2u399_40
  8527   0026D0                     i2u399_41:
  8528   0026D0  EF6B  F013         	goto	i2l3909
  8529   0026D4                     i2u399_40:
  8530   0026D4  9E13               	bcf	(i2___xxtofl@arg+2)^0,7,c
  8531   0026D6                     i2l3909:
  8532   0026D6  90D8               	bcf	status,0,c
  8533   0026D8  3210               	rrcf	i2___xxtofl@exp^0,f,c
  8534   0026DA  C010  F00B         	movff	i2___xxtofl@exp,??i2___xxtofl
  8535   0026DE  6A0C               	clrf	(??i2___xxtofl+1)^0,c
  8536   0026E0  6A0D               	clrf	(??i2___xxtofl+2)^0,c
  8537   0026E2  6A0E               	clrf	(??i2___xxtofl+3)^0,c
  8538   0026E4  C00B  F00E         	movff	??i2___xxtofl,??i2___xxtofl+3
  8539   0026E8  6A0D               	clrf	(??i2___xxtofl+2)^0,c
  8540   0026EA  6A0C               	clrf	(??i2___xxtofl+1)^0,c
  8541   0026EC  6A0B               	clrf	??i2___xxtofl^0,c
  8542   0026EE  500B               	movf	??i2___xxtofl^0,w,c
  8543   0026F0  1211               	iorwf	i2___xxtofl@arg^0,f,c
  8544   0026F2  500C               	movf	(??i2___xxtofl+1)^0,w,c
  8545   0026F4  1212               	iorwf	(i2___xxtofl@arg+1)^0,f,c
  8546   0026F6  500D               	movf	(??i2___xxtofl+2)^0,w,c
  8547   0026F8  1213               	iorwf	(i2___xxtofl@arg+2)^0,f,c
  8548   0026FA  500E               	movf	(??i2___xxtofl+3)^0,w,c
  8549   0026FC  1214               	iorwf	(i2___xxtofl@arg+3)^0,f,c
  8550   0026FE  500F               	movf	i2___xxtofl@sign^0,w,c
  8551   002700  B4D8               	btfsc	status,2,c
  8552   002702  EF85  F013         	goto	i2u400_41
  8553   002706  EF87  F013         	goto	i2u400_40
  8554   00270A                     i2u400_41:
  8555   00270A  EF8F  F013         	goto	i2l3919
  8556   00270E                     i2u400_40:
  8557   00270E  BE0A               	btfsc	(i2___xxtofl@val+3)^0,7,c
  8558   002710  EF8E  F013         	goto	i2u401_40
  8559   002714  EF8C  F013         	goto	i2u401_41
  8560   002718                     i2u401_41:
  8561   002718  EF8F  F013         	goto	i2l3919
  8562   00271C                     i2u401_40:
  8563   00271C  8E14               	bsf	(i2___xxtofl@arg+3)^0,7,c
  8564   00271E                     i2l3919:
  8565   00271E  C011  F007         	movff	i2___xxtofl@arg,?i2___xxtofl
  8566   002722  C012  F008         	movff	i2___xxtofl@arg+1,?i2___xxtofl+1
  8567   002726  C013  F009         	movff	i2___xxtofl@arg+2,?i2___xxtofl+2
  8568   00272A  C014  F00A         	movff	i2___xxtofl@arg+3,?i2___xxtofl+3
  8569   00272E                     i2l842:
  8570   00272E  0012               	return		;funcret
  8571   002730                     __end_ofi2___xxtofl:
  8572                           	callstack 0
  8573                           
  8574 ;; *************** function i2___wmul *****************
  8575 ;; Defined at:
  8576 ;;		line 15 in file "C:\Program Files\Microchip\xc8\v2.40\pic\sources\c99\common\Umul16.c"
  8577 ;; Parameters:    Size  Location     Type
  8578 ;;  multiplier      2    0[COMRAM] unsigned int 
  8579 ;;  multiplicand    2    2[COMRAM] unsigned int 
  8580 ;; Auto vars:     Size  Location     Type
  8581 ;;  product         2    4[COMRAM] unsigned int 
  8582 ;; Return value:  Size  Location     Type
  8583 ;;                  2    0[COMRAM] unsigned int 
  8584 ;; Registers used:
  8585 ;;		wreg, status,2, status,0, prodl, prodh
  8586 ;; Tracked objects:
  8587 ;;		On entry : 0/0
  8588 ;;		On exit  : 0/0
  8589 ;;		Unchanged: 0/0
  8590 ;; Data sizes:     COMRAM   BANK0   BANK1   BANK2   BANK3   BANK4   BANK5   BANK6   BANK7
  8591 ;;      Params:         4       0       0       0       0       0       0       0       0
  8592 ;;      Locals:         2       0       0       0       0       0       0       0       0
  8593 ;;      Temps:          0       0       0       0       0       0       0       0       0
  8594 ;;      Totals:         6       0       0       0       0       0       0       0       0
  8595 ;;Total ram usage:        6 bytes
  8596 ;; Hardware stack levels used: 1
  8597 ;; This function calls:
  8598 ;;		Nothing
  8599 ;; This function is called by:
  8600 ;;		_INTERRUPTS
  8601 ;; This function uses a non-reentrant model
  8602 ;;
  8603                           
  8604                           	psect	text37
  8605   0037A2                     __ptext37:
  8606                           	callstack 0
  8607   0037A2                     i2___wmul:
  8608                           	callstack 21
  8609   0037A2  5001               	movf	i2___wmul@multiplier^0,w,c
  8610   0037A4  0203               	mulwf	i2___wmul@multiplicand^0,c
  8611   0037A6  CFF3 F005          	movff	prodl,i2___wmul@product
  8612   0037AA  CFF4 F006          	movff	prodh,i2___wmul@product+1
  8613   0037AE  5001               	movf	i2___wmul@multiplier^0,w,c
  8614   0037B0  0204               	mulwf	(i2___wmul@multiplicand+1)^0,c
  8615   0037B2  50F3               	movf	243,w,c
  8616   0037B4  2606               	addwf	(i2___wmul@product+1)^0,f,c
  8617   0037B6  5002               	movf	(i2___wmul@multiplier+1)^0,w,c
  8618   0037B8  0203               	mulwf	i2___wmul@multiplicand^0,c
  8619   0037BA  50F3               	movf	243,w,c
  8620   0037BC  2606               	addwf	(i2___wmul@product+1)^0,f,c
  8621   0037BE  C005  F001         	movff	i2___wmul@product,?i2___wmul
  8622   0037C2  C006  F002         	movff	i2___wmul@product+1,?i2___wmul+1
  8623   0037C6  0012               	return		;funcret
  8624   0037C8                     __end_ofi2___wmul:
  8625                           	callstack 0
  8626                           
  8627 ;; *************** function i2___fltol *****************
  8628 ;; Defined at:
  8629 ;;		line 43 in file "C:\Program Files\Microchip\xc8\v2.40\pic\sources\c99\common\fltol.c"
  8630 ;; Parameters:    Size  Location     Type
  8631 ;;  f1              4   45[COMRAM] unsigned int 
  8632 ;; Auto vars:     Size  Location     Type
  8633 ;;  exp1            1   54[COMRAM] unsigned char 
  8634 ;;  sign1           1   53[COMRAM] unsigned char 
  8635 ;; Return value:  Size  Location     Type
  8636 ;;                  4   45[COMRAM] long 
  8637 ;; Registers used:
  8638 ;;		wreg, status,2, status,0
  8639 ;; Tracked objects:
  8640 ;;		On entry : 0/0
  8641 ;;		On exit  : 0/0
  8642 ;;		Unchanged: 0/0
  8643 ;; Data sizes:     COMRAM   BANK0   BANK1   BANK2   BANK3   BANK4   BANK5   BANK6   BANK7
  8644 ;;      Params:         4       0       0       0       0       0       0       0       0
  8645 ;;      Locals:         2       0       0       0       0       0       0       0       0
  8646 ;;      Temps:          4       0       0       0       0       0       0       0       0
  8647 ;;      Totals:        10       0       0       0       0       0       0       0       0
  8648 ;;Total ram usage:       10 bytes
  8649 ;; Hardware stack levels used: 1
  8650 ;; This function calls:
  8651 ;;		Nothing
  8652 ;; This function is called by:
  8653 ;;		_INTERRUPTS
  8654 ;; This function uses a non-reentrant model
  8655 ;;
  8656                           
  8657                           	psect	text38
  8658   002EAE                     __ptext38:
  8659                           	callstack 0
  8660   002EAE                     i2___fltol:
  8661                           	callstack 21
  8662   002EAE  3430               	rlcf	(i2___fltol@f1+2)^0,w,c
  8663   002EB0  3431               	rlcf	(i2___fltol@f1+3)^0,w,c
  8664   002EB2  6E37               	movwf	i2___fltol@exp1^0,c
  8665   002EB4  5037               	movf	i2___fltol@exp1^0,w,c
  8666   002EB6  A4D8               	btfss	status,2,c
  8667   002EB8  EF60  F017         	goto	i2u366_41
  8668   002EBC  EF62  F017         	goto	i2u366_40
  8669   002EC0                     i2u366_41:
  8670   002EC0  EF6C  F017         	goto	i2l3709
  8671   002EC4                     i2u366_40:
  8672   002EC4                     i2l3705:
  8673   002EC4  0E00               	movlw	0
  8674   002EC6  6E2E               	movwf	?i2___fltol^0,c
  8675   002EC8  0E00               	movlw	0
  8676   002ECA  6E2F               	movwf	(?i2___fltol+1)^0,c
  8677   002ECC  0E00               	movlw	0
  8678   002ECE  6E30               	movwf	(?i2___fltol+2)^0,c
  8679   002ED0  0E00               	movlw	0
  8680   002ED2  6E31               	movwf	(?i2___fltol+3)^0,c
  8681   002ED4  EFD9  F017         	goto	i2l481
  8682   002ED8                     i2l3709:
  8683   002ED8  C02E  F032         	movff	i2___fltol@f1,??i2___fltol
  8684   002EDC  C02F  F033         	movff	i2___fltol@f1+1,??i2___fltol+1
  8685   002EE0  C030  F034         	movff	i2___fltol@f1+2,??i2___fltol+2
  8686   002EE4  C031  F035         	movff	i2___fltol@f1+3,??i2___fltol+3
  8687   002EE8  0E20               	movlw	32
  8688   002EEA  EF7C  F017         	goto	i2u367_40
  8689   002EEE                     i2u367_45:
  8690   002EEE  90D8               	bcf	status,0,c
  8691   002EF0  3235               	rrcf	(??i2___fltol+3)^0,f,c
  8692   002EF2  3234               	rrcf	(??i2___fltol+2)^0,f,c
  8693   002EF4  3233               	rrcf	(??i2___fltol+1)^0,f,c
  8694   002EF6  3232               	rrcf	??i2___fltol^0,f,c
  8695   002EF8                     i2u367_40:
  8696   002EF8  2EE8               	decfsz	wreg,f,c
  8697   002EFA  EF77  F017         	goto	i2u367_45
  8698   002EFE  5032               	movf	??i2___fltol^0,w,c
  8699   002F00  6E36               	movwf	i2___fltol@sign1^0,c
  8700   002F02  8E30               	bsf	(i2___fltol@f1+2)^0,7,c
  8701   002F04  0EFF               	movlw	255
  8702   002F06  162E               	andwf	i2___fltol@f1^0,f,c
  8703   002F08  0EFF               	movlw	255
  8704   002F0A  162F               	andwf	(i2___fltol@f1+1)^0,f,c
  8705   002F0C  0EFF               	movlw	255
  8706   002F0E  1630               	andwf	(i2___fltol@f1+2)^0,f,c
  8707   002F10  0E00               	movlw	0
  8708   002F12  1631               	andwf	(i2___fltol@f1+3)^0,f,c
  8709   002F14  0E96               	movlw	150
  8710   002F16  5E37               	subwf	i2___fltol@exp1^0,f,c
  8711   002F18  BE37               	btfsc	i2___fltol@exp1^0,7,c
  8712   002F1A  EF93  F017         	goto	i2u368_40
  8713   002F1E  EF91  F017         	goto	i2u368_41
  8714   002F22                     i2u368_41:
  8715   002F22  EFA9  F017         	goto	i2l3729
  8716   002F26                     i2u368_40:
  8717   002F26  5037               	movf	i2___fltol@exp1^0,w,c
  8718   002F28  0A80               	xorlw	128
  8719   002F2A  0F97               	addlw	151
  8720   002F2C  B0D8               	btfsc	status,0,c
  8721   002F2E  EF9B  F017         	goto	i2u369_41
  8722   002F32  EF9D  F017         	goto	i2u369_40
  8723   002F36                     i2u369_41:
  8724   002F36  EF9F  F017         	goto	i2l3725
  8725   002F3A                     i2u369_40:
  8726   002F3A  EF62  F017         	goto	i2l3705
  8727   002F3E                     i2l3725:
  8728   002F3E  90D8               	bcf	status,0,c
  8729   002F40  3231               	rrcf	(i2___fltol@f1+3)^0,f,c
  8730   002F42  3230               	rrcf	(i2___fltol@f1+2)^0,f,c
  8731   002F44  322F               	rrcf	(i2___fltol@f1+1)^0,f,c
  8732   002F46  322E               	rrcf	i2___fltol@f1^0,f,c
  8733   002F48  3E37               	incfsz	i2___fltol@exp1^0,f,c
  8734   002F4A  EF9F  F017         	goto	i2l3725
  8735   002F4E  EFC1  F017         	goto	i2l3739
  8736   002F52                     i2l3729:
  8737   002F52  0E1F               	movlw	31
  8738   002F54  6437               	cpfsgt	i2___fltol@exp1^0,c
  8739   002F56  EFAF  F017         	goto	i2u370_41
  8740   002F5A  EFB1  F017         	goto	i2u370_40
  8741   002F5E                     i2u370_41:
  8742   002F5E  EFB9  F017         	goto	i2l3737
  8743   002F62                     i2u370_40:
  8744   002F62  EF62  F017         	goto	i2l3705
  8745   002F66                     i2l3735:
  8746   002F66  90D8               	bcf	status,0,c
  8747   002F68  362E               	rlcf	i2___fltol@f1^0,f,c
  8748   002F6A  362F               	rlcf	(i2___fltol@f1+1)^0,f,c
  8749   002F6C  3630               	rlcf	(i2___fltol@f1+2)^0,f,c
  8750   002F6E  3631               	rlcf	(i2___fltol@f1+3)^0,f,c
  8751   002F70  0637               	decf	i2___fltol@exp1^0,f,c
  8752   002F72                     i2l3737:
  8753   002F72  5037               	movf	i2___fltol@exp1^0,w,c
  8754   002F74  A4D8               	btfss	status,2,c
  8755   002F76  EFBF  F017         	goto	i2u371_41
  8756   002F7A  EFC1  F017         	goto	i2u371_40
  8757   002F7E                     i2u371_41:
  8758   002F7E  EFB3  F017         	goto	i2l3735
  8759   002F82                     i2u371_40:
  8760   002F82                     i2l3739:
  8761   002F82  5036               	movf	i2___fltol@sign1^0,w,c
  8762   002F84  B4D8               	btfsc	status,2,c
  8763   002F86  EFC7  F017         	goto	i2u372_41
  8764   002F8A  EFC9  F017         	goto	i2u372_40
  8765   002F8E                     i2u372_41:
  8766   002F8E  EFD1  F017         	goto	i2l3743
  8767   002F92                     i2u372_40:
  8768   002F92  1E31               	comf	(i2___fltol@f1+3)^0,f,c
  8769   002F94  1E30               	comf	(i2___fltol@f1+2)^0,f,c
  8770   002F96  1E2F               	comf	(i2___fltol@f1+1)^0,f,c
  8771   002F98  6C2E               	negf	i2___fltol@f1^0,c
  8772   002F9A  0E00               	movlw	0
  8773   002F9C  222F               	addwfc	(i2___fltol@f1+1)^0,f,c
  8774   002F9E  2230               	addwfc	(i2___fltol@f1+2)^0,f,c
  8775   002FA0  2231               	addwfc	(i2___fltol@f1+3)^0,f,c
  8776   002FA2                     i2l3743:
  8777   002FA2  C02E  F02E         	movff	i2___fltol@f1,?i2___fltol
  8778   002FA6  C02F  F02F         	movff	i2___fltol@f1+1,?i2___fltol+1
  8779   002FAA  C030  F030         	movff	i2___fltol@f1+2,?i2___fltol+2
  8780   002FAE  C031  F031         	movff	i2___fltol@f1+3,?i2___fltol+3
  8781   002FB2                     i2l481:
  8782   002FB2  0012               	return		;funcret
  8783   002FB4                     __end_ofi2___fltol:
  8784                           	callstack 0
  8785                           
  8786 ;; *************** function i2___flmul *****************
  8787 ;; Defined at:
  8788 ;;		line 8 in file "C:\Program Files\Microchip\xc8\v2.40\pic\sources\c99\common\sprcmul.c"
  8789 ;; Parameters:    Size  Location     Type
  8790 ;;  b               4   20[COMRAM] long 
  8791 ;;  a               4   24[COMRAM] long 
  8792 ;; Auto vars:     Size  Location     Type
  8793 ;;  prod            4   39[COMRAM] struct .
  8794 ;;  grs             4   33[COMRAM] unsigned long 
  8795 ;;  temp            2   43[COMRAM] struct .
  8796 ;;  bexp            1   38[COMRAM] unsigned char 
  8797 ;;  aexp            1   37[COMRAM] unsigned char 
  8798 ;;  sign            1   32[COMRAM] unsigned char 
  8799 ;; Return value:  Size  Location     Type
  8800 ;;                  4   20[COMRAM] unsigned char 
  8801 ;; Registers used:
  8802 ;;		wreg, status,2, status,0, prodl, prodh
  8803 ;; Tracked objects:
  8804 ;;		On entry : 0/0
  8805 ;;		On exit  : 0/0
  8806 ;;		Unchanged: 0/0
  8807 ;; Data sizes:     COMRAM   BANK0   BANK1   BANK2   BANK3   BANK4   BANK5   BANK6   BANK7
  8808 ;;      Params:         8       0       0       0       0       0       0       0       0
  8809 ;;      Locals:        13       0       0       0       0       0       0       0       0
  8810 ;;      Temps:          4       0       0       0       0       0       0       0       0
  8811 ;;      Totals:        25       0       0       0       0       0       0       0       0
  8812 ;;Total ram usage:       25 bytes
  8813 ;; Hardware stack levels used: 1
  8814 ;; This function calls:
  8815 ;;		Nothing
  8816 ;; This function is called by:
  8817 ;;		_INTERRUPTS
  8818 ;; This function uses a non-reentrant model
  8819 ;;
  8820                           
  8821                           	psect	text39
  8822   00113A                     __ptext39:
  8823                           	callstack 0
  8824   00113A                     i2___flmul:
  8825                           	callstack 21
  8826   00113A  5018               	movf	(i2___flmul@b+3)^0,w,c
  8827   00113C  0B80               	andlw	128
  8828   00113E  6E21               	movwf	i2___flmul@sign^0,c
  8829   001140  5018               	movf	(i2___flmul@b+3)^0,w,c
  8830   001142  2418               	addwf	(i2___flmul@b+3)^0,w,c
  8831   001144  6E27               	movwf	i2___flmul@bexp^0,c
  8832   001146  AE17               	btfss	(i2___flmul@b+2)^0,7,c
  8833   001148  EFA8  F008         	goto	i2u373_41
  8834   00114C  EFAA  F008         	goto	i2u373_40
  8835   001150                     i2u373_41:
  8836   001150  EFAB  F008         	goto	i2l3753
  8837   001154                     i2u373_40:
  8838   001154  8027               	bsf	i2___flmul@bexp^0,0,c
  8839   001156                     i2l3753:
  8840   001156  5027               	movf	i2___flmul@bexp^0,w,c
  8841   001158  B4D8               	btfsc	status,2,c
  8842   00115A  EFB1  F008         	goto	i2u374_41
  8843   00115E  EFB3  F008         	goto	i2u374_40
  8844   001162                     i2u374_41:
  8845   001162  EFC6  F008         	goto	i2l3761
  8846   001166                     i2u374_40:
  8847   001166  2827               	incf	i2___flmul@bexp^0,w,c
  8848   001168  A4D8               	btfss	status,2,c
  8849   00116A  EFB9  F008         	goto	i2u375_41
  8850   00116E  EFBB  F008         	goto	i2u375_40
  8851   001172                     i2u375_41:
  8852   001172  EFC3  F008         	goto	i2l3759
  8853   001176                     i2u375_40:
  8854   001176  0E00               	movlw	0
  8855   001178  6E15               	movwf	i2___flmul@b^0,c
  8856   00117A  0E00               	movlw	0
  8857   00117C  6E16               	movwf	(i2___flmul@b+1)^0,c
  8858   00117E  0E00               	movlw	0
  8859   001180  6E17               	movwf	(i2___flmul@b+2)^0,c
  8860   001182  0E00               	movlw	0
  8861   001184  6E18               	movwf	(i2___flmul@b+3)^0,c
  8862   001186                     i2l3759:
  8863   001186  8E17               	bsf	(i2___flmul@b+2)^0,7,c
  8864   001188  EFCE  F008         	goto	i2l3763
  8865   00118C                     i2l3761:
  8866   00118C  0E00               	movlw	0
  8867   00118E  6E15               	movwf	i2___flmul@b^0,c
  8868   001190  0E00               	movlw	0
  8869   001192  6E16               	movwf	(i2___flmul@b+1)^0,c
  8870   001194  0E00               	movlw	0
  8871   001196  6E17               	movwf	(i2___flmul@b+2)^0,c
  8872   001198  0E00               	movlw	0
  8873   00119A  6E18               	movwf	(i2___flmul@b+3)^0,c
  8874   00119C                     i2l3763:
  8875   00119C  501C               	movf	(i2___flmul@a+3)^0,w,c
  8876   00119E  0B80               	andlw	128
  8877   0011A0  1A21               	xorwf	i2___flmul@sign^0,f,c
  8878   0011A2  501C               	movf	(i2___flmul@a+3)^0,w,c
  8879   0011A4  241C               	addwf	(i2___flmul@a+3)^0,w,c
  8880   0011A6  6E26               	movwf	i2___flmul@aexp^0,c
  8881   0011A8  AE1B               	btfss	(i2___flmul@a+2)^0,7,c
  8882   0011AA  EFD9  F008         	goto	i2u376_41
  8883   0011AE  EFDB  F008         	goto	i2u376_40
  8884   0011B2                     i2u376_41:
  8885   0011B2  EFDC  F008         	goto	i2l3771
  8886   0011B6                     i2u376_40:
  8887   0011B6  8026               	bsf	i2___flmul@aexp^0,0,c
  8888   0011B8                     i2l3771:
  8889   0011B8  5026               	movf	i2___flmul@aexp^0,w,c
  8890   0011BA  B4D8               	btfsc	status,2,c
  8891   0011BC  EFE2  F008         	goto	i2u377_41
  8892   0011C0  EFE4  F008         	goto	i2u377_40
  8893   0011C4                     i2u377_41:
  8894   0011C4  EFF7  F008         	goto	i2l3779
  8895   0011C8                     i2u377_40:
  8896   0011C8  2826               	incf	i2___flmul@aexp^0,w,c
  8897   0011CA  A4D8               	btfss	status,2,c
  8898   0011CC  EFEA  F008         	goto	i2u378_41
  8899   0011D0  EFEC  F008         	goto	i2u378_40
  8900   0011D4                     i2u378_41:
  8901   0011D4  EFF4  F008         	goto	i2l3777
  8902   0011D8                     i2u378_40:
  8903   0011D8  0E00               	movlw	0
  8904   0011DA  6E19               	movwf	i2___flmul@a^0,c
  8905   0011DC  0E00               	movlw	0
  8906   0011DE  6E1A               	movwf	(i2___flmul@a+1)^0,c
  8907   0011E0  0E00               	movlw	0
  8908   0011E2  6E1B               	movwf	(i2___flmul@a+2)^0,c
  8909   0011E4  0E00               	movlw	0
  8910   0011E6  6E1C               	movwf	(i2___flmul@a+3)^0,c
  8911   0011E8                     i2l3777:
  8912   0011E8  8E1B               	bsf	(i2___flmul@a+2)^0,7,c
  8913   0011EA  EFFF  F008         	goto	i2l798
  8914   0011EE                     i2l3779:
  8915   0011EE  0E00               	movlw	0
  8916   0011F0  6E19               	movwf	i2___flmul@a^0,c
  8917   0011F2  0E00               	movlw	0
  8918   0011F4  6E1A               	movwf	(i2___flmul@a+1)^0,c
  8919   0011F6  0E00               	movlw	0
  8920   0011F8  6E1B               	movwf	(i2___flmul@a+2)^0,c
  8921   0011FA  0E00               	movlw	0
  8922   0011FC  6E1C               	movwf	(i2___flmul@a+3)^0,c
  8923   0011FE                     i2l798:
  8924   0011FE  5026               	movf	i2___flmul@aexp^0,w,c
  8925   001200  B4D8               	btfsc	status,2,c
  8926   001202  EF05  F009         	goto	i2u379_41
  8927   001206  EF07  F009         	goto	i2u379_40
  8928   00120A                     i2u379_41:
  8929   00120A  EF0F  F009         	goto	i2l3783
  8930   00120E                     i2u379_40:
  8931   00120E  5027               	movf	i2___flmul@bexp^0,w,c
  8932   001210  A4D8               	btfss	status,2,c
  8933   001212  EF0D  F009         	goto	i2u380_41
  8934   001216  EF0F  F009         	goto	i2u380_40
  8935   00121A                     i2u380_41:
  8936   00121A  EF19  F009         	goto	i2l3787
  8937   00121E                     i2u380_40:
  8938   00121E                     i2l3783:
  8939   00121E  0E00               	movlw	0
  8940   001220  6E15               	movwf	?i2___flmul^0,c
  8941   001222  0E00               	movlw	0
  8942   001224  6E16               	movwf	(?i2___flmul+1)^0,c
  8943   001226  0E00               	movlw	0
  8944   001228  6E17               	movwf	(?i2___flmul+2)^0,c
  8945   00122A  0E00               	movlw	0
  8946   00122C  6E18               	movwf	(?i2___flmul+3)^0,c
  8947   00122E  EFB1  F00A         	goto	i2l802
  8948   001232                     i2l3787:
  8949   001232  501B               	movf	(i2___flmul@a+2)^0,w,c
  8950   001234  0215               	mulwf	i2___flmul@b^0,c
  8951   001236  CFF3 F02C          	movff	prodl,i2___flmul@temp
  8952   00123A  CFF4 F02D          	movff	prodh,i2___flmul@temp+1
  8953   00123E  502C               	movf	i2___flmul@temp^0,w,c
  8954   001240  6E22               	movwf	i2___flmul@grs^0,c
  8955   001242  6A23               	clrf	(i2___flmul@grs+1)^0,c
  8956   001244  6A24               	clrf	(i2___flmul@grs+2)^0,c
  8957   001246  6A25               	clrf	(i2___flmul@grs+3)^0,c
  8958   001248  502D               	movf	(i2___flmul@temp+1)^0,w,c
  8959   00124A  6E28               	movwf	i2___flmul@prod^0,c
  8960   00124C  6A29               	clrf	(i2___flmul@prod+1)^0,c
  8961   00124E  6A2A               	clrf	(i2___flmul@prod+2)^0,c
  8962   001250  6A2B               	clrf	(i2___flmul@prod+3)^0,c
  8963   001252  501A               	movf	(i2___flmul@a+1)^0,w,c
  8964   001254  0216               	mulwf	(i2___flmul@b+1)^0,c
  8965   001256  CFF3 F02C          	movff	prodl,i2___flmul@temp
  8966   00125A  CFF4 F02D          	movff	prodh,i2___flmul@temp+1
  8967   00125E  502C               	movf	i2___flmul@temp^0,w,c
  8968   001260  2622               	addwf	i2___flmul@grs^0,f,c
  8969   001262  0E00               	movlw	0
  8970   001264  2223               	addwfc	(i2___flmul@grs+1)^0,f,c
  8971   001266  2224               	addwfc	(i2___flmul@grs+2)^0,f,c
  8972   001268  2225               	addwfc	(i2___flmul@grs+3)^0,f,c
  8973   00126A  502D               	movf	(i2___flmul@temp+1)^0,w,c
  8974   00126C  2628               	addwf	i2___flmul@prod^0,f,c
  8975   00126E  0E00               	movlw	0
  8976   001270  2229               	addwfc	(i2___flmul@prod+1)^0,f,c
  8977   001272  222A               	addwfc	(i2___flmul@prod+2)^0,f,c
  8978   001274  222B               	addwfc	(i2___flmul@prod+3)^0,f,c
  8979   001276  5019               	movf	i2___flmul@a^0,w,c
  8980   001278  0217               	mulwf	(i2___flmul@b+2)^0,c
  8981   00127A  CFF3 F02C          	movff	prodl,i2___flmul@temp
  8982   00127E  CFF4 F02D          	movff	prodh,i2___flmul@temp+1
  8983   001282  502C               	movf	i2___flmul@temp^0,w,c
  8984   001284  2622               	addwf	i2___flmul@grs^0,f,c
  8985   001286  0E00               	movlw	0
  8986   001288  2223               	addwfc	(i2___flmul@grs+1)^0,f,c
  8987   00128A  2224               	addwfc	(i2___flmul@grs+2)^0,f,c
  8988   00128C  2225               	addwfc	(i2___flmul@grs+3)^0,f,c
  8989   00128E  502D               	movf	(i2___flmul@temp+1)^0,w,c
  8990   001290  2628               	addwf	i2___flmul@prod^0,f,c
  8991   001292  0E00               	movlw	0
  8992   001294  2229               	addwfc	(i2___flmul@prod+1)^0,f,c
  8993   001296  222A               	addwfc	(i2___flmul@prod+2)^0,f,c
  8994   001298  222B               	addwfc	(i2___flmul@prod+3)^0,f,c
  8995   00129A  C024  F025         	movff	i2___flmul@grs+2,i2___flmul@grs+3
  8996   00129E  C023  F024         	movff	i2___flmul@grs+1,i2___flmul@grs+2
  8997   0012A2  C022  F023         	movff	i2___flmul@grs,i2___flmul@grs+1
  8998   0012A6  6A22               	clrf	i2___flmul@grs^0,c
  8999   0012A8  5019               	movf	i2___flmul@a^0,w,c
  9000   0012AA  0216               	mulwf	(i2___flmul@b+1)^0,c
  9001   0012AC  CFF3 F02C          	movff	prodl,i2___flmul@temp
  9002   0012B0  CFF4 F02D          	movff	prodh,i2___flmul@temp+1
  9003   0012B4  502C               	movf	i2___flmul@temp^0,w,c
  9004   0012B6  2622               	addwf	i2___flmul@grs^0,f,c
  9005   0012B8  502D               	movf	(i2___flmul@temp+1)^0,w,c
  9006   0012BA  2223               	addwfc	(i2___flmul@grs+1)^0,f,c
  9007   0012BC  0E00               	movlw	0
  9008   0012BE  2224               	addwfc	(i2___flmul@grs+2)^0,f,c
  9009   0012C0  0E00               	movlw	0
  9010   0012C2  2225               	addwfc	(i2___flmul@grs+3)^0,f,c
  9011   0012C4  501A               	movf	(i2___flmul@a+1)^0,w,c
  9012   0012C6  0215               	mulwf	i2___flmul@b^0,c
  9013   0012C8  CFF3 F02C          	movff	prodl,i2___flmul@temp
  9014   0012CC  CFF4 F02D          	movff	prodh,i2___flmul@temp+1
  9015   0012D0  502C               	movf	i2___flmul@temp^0,w,c
  9016   0012D2  2622               	addwf	i2___flmul@grs^0,f,c
  9017   0012D4  502D               	movf	(i2___flmul@temp+1)^0,w,c
  9018   0012D6  2223               	addwfc	(i2___flmul@grs+1)^0,f,c
  9019   0012D8  0E00               	movlw	0
  9020   0012DA  2224               	addwfc	(i2___flmul@grs+2)^0,f,c
  9021   0012DC  0E00               	movlw	0
  9022   0012DE  2225               	addwfc	(i2___flmul@grs+3)^0,f,c
  9023   0012E0  C024  F025         	movff	i2___flmul@grs+2,i2___flmul@grs+3
  9024   0012E4  C023  F024         	movff	i2___flmul@grs+1,i2___flmul@grs+2
  9025   0012E8  C022  F023         	movff	i2___flmul@grs,i2___flmul@grs+1
  9026   0012EC  6A22               	clrf	i2___flmul@grs^0,c
  9027   0012EE  5019               	movf	i2___flmul@a^0,w,c
  9028   0012F0  0215               	mulwf	i2___flmul@b^0,c
  9029   0012F2  CFF3 F02C          	movff	prodl,i2___flmul@temp
  9030   0012F6  CFF4 F02D          	movff	prodh,i2___flmul@temp+1
  9031   0012FA  502C               	movf	i2___flmul@temp^0,w,c
  9032   0012FC  2622               	addwf	i2___flmul@grs^0,f,c
  9033   0012FE  502D               	movf	(i2___flmul@temp+1)^0,w,c
  9034   001300  2223               	addwfc	(i2___flmul@grs+1)^0,f,c
  9035   001302  0E00               	movlw	0
  9036   001304  2224               	addwfc	(i2___flmul@grs+2)^0,f,c
  9037   001306  0E00               	movlw	0
  9038   001308  2225               	addwfc	(i2___flmul@grs+3)^0,f,c
  9039   00130A  501B               	movf	(i2___flmul@a+2)^0,w,c
  9040   00130C  0216               	mulwf	(i2___flmul@b+1)^0,c
  9041   00130E  CFF3 F02C          	movff	prodl,i2___flmul@temp
  9042   001312  CFF4 F02D          	movff	prodh,i2___flmul@temp+1
  9043   001316  502C               	movf	i2___flmul@temp^0,w,c
  9044   001318  2628               	addwf	i2___flmul@prod^0,f,c
  9045   00131A  502D               	movf	(i2___flmul@temp+1)^0,w,c
  9046   00131C  2229               	addwfc	(i2___flmul@prod+1)^0,f,c
  9047   00131E  0E00               	movlw	0
  9048   001320  222A               	addwfc	(i2___flmul@prod+2)^0,f,c
  9049   001322  0E00               	movlw	0
  9050   001324  222B               	addwfc	(i2___flmul@prod+3)^0,f,c
  9051   001326  501A               	movf	(i2___flmul@a+1)^0,w,c
  9052   001328  0217               	mulwf	(i2___flmul@b+2)^0,c
  9053   00132A  CFF3 F02C          	movff	prodl,i2___flmul@temp
  9054   00132E  CFF4 F02D          	movff	prodh,i2___flmul@temp+1
  9055   001332  502C               	movf	i2___flmul@temp^0,w,c
  9056   001334  2628               	addwf	i2___flmul@prod^0,f,c
  9057   001336  502D               	movf	(i2___flmul@temp+1)^0,w,c
  9058   001338  2229               	addwfc	(i2___flmul@prod+1)^0,f,c
  9059   00133A  0E00               	movlw	0
  9060   00133C  222A               	addwfc	(i2___flmul@prod+2)^0,f,c
  9061   00133E  0E00               	movlw	0
  9062   001340  222B               	addwfc	(i2___flmul@prod+3)^0,f,c
  9063   001342  501B               	movf	(i2___flmul@a+2)^0,w,c
  9064   001344  0217               	mulwf	(i2___flmul@b+2)^0,c
  9065   001346  CFF3 F02C          	movff	prodl,i2___flmul@temp
  9066   00134A  CFF4 F02D          	movff	prodh,i2___flmul@temp+1
  9067   00134E  502C               	movf	i2___flmul@temp^0,w,c
  9068   001350  6E1D               	movwf	??i2___flmul^0,c
  9069   001352  502D               	movf	(i2___flmul@temp+1)^0,w,c
  9070   001354  6E1E               	movwf	(??i2___flmul+1)^0,c
  9071   001356  6A1F               	clrf	(??i2___flmul+2)^0,c
  9072   001358  6A20               	clrf	(??i2___flmul+3)^0,c
  9073   00135A  C01F  F020         	movff	??i2___flmul+2,??i2___flmul+3
  9074   00135E  C01E  F01F         	movff	??i2___flmul+1,??i2___flmul+2
  9075   001362  C01D  F01E         	movff	??i2___flmul,??i2___flmul+1
  9076   001366  6A1D               	clrf	??i2___flmul^0,c
  9077   001368  501D               	movf	??i2___flmul^0,w,c
  9078   00136A  2628               	addwf	i2___flmul@prod^0,f,c
  9079   00136C  501E               	movf	(??i2___flmul+1)^0,w,c
  9080   00136E  2229               	addwfc	(i2___flmul@prod+1)^0,f,c
  9081   001370  501F               	movf	(??i2___flmul+2)^0,w,c
  9082   001372  222A               	addwfc	(i2___flmul@prod+2)^0,f,c
  9083   001374  5020               	movf	(??i2___flmul+3)^0,w,c
  9084   001376  222B               	addwfc	(i2___flmul@prod+3)^0,f,c
  9085   001378  C022  F01D         	movff	i2___flmul@grs,??i2___flmul
  9086   00137C  C023  F01E         	movff	i2___flmul@grs+1,??i2___flmul+1
  9087   001380  C024  F01F         	movff	i2___flmul@grs+2,??i2___flmul+2
  9088   001384  C025  F020         	movff	i2___flmul@grs+3,??i2___flmul+3
  9089   001388  0E19               	movlw	25
  9090   00138A  EFCC  F009         	goto	i2u381_40
  9091   00138E                     i2u381_45:
  9092   00138E  90D8               	bcf	status,0,c
  9093   001390  3220               	rrcf	(??i2___flmul+3)^0,f,c
  9094   001392  321F               	rrcf	(??i2___flmul+2)^0,f,c
  9095   001394  321E               	rrcf	(??i2___flmul+1)^0,f,c
  9096   001396  321D               	rrcf	??i2___flmul^0,f,c
  9097   001398                     i2u381_40:
  9098   001398  2EE8               	decfsz	wreg,f,c
  9099   00139A  EFC7  F009         	goto	i2u381_45
  9100   00139E  501D               	movf	??i2___flmul^0,w,c
  9101   0013A0  2628               	addwf	i2___flmul@prod^0,f,c
  9102   0013A2  501E               	movf	(??i2___flmul+1)^0,w,c
  9103   0013A4  2229               	addwfc	(i2___flmul@prod+1)^0,f,c
  9104   0013A6  501F               	movf	(??i2___flmul+2)^0,w,c
  9105   0013A8  222A               	addwfc	(i2___flmul@prod+2)^0,f,c
  9106   0013AA  5020               	movf	(??i2___flmul+3)^0,w,c
  9107   0013AC  222B               	addwfc	(i2___flmul@prod+3)^0,f,c
  9108   0013AE  C024  F025         	movff	i2___flmul@grs+2,i2___flmul@grs+3
  9109   0013B2  C023  F024         	movff	i2___flmul@grs+1,i2___flmul@grs+2
  9110   0013B6  C022  F023         	movff	i2___flmul@grs,i2___flmul@grs+1
  9111   0013BA  6A22               	clrf	i2___flmul@grs^0,c
  9112   0013BC  5026               	movf	i2___flmul@aexp^0,w,c
  9113   0013BE  C027  F01D         	movff	i2___flmul@bexp,??i2___flmul
  9114   0013C2  6A1E               	clrf	(??i2___flmul+1)^0,c
  9115   0013C4  261D               	addwf	??i2___flmul^0,f,c
  9116   0013C6  0E00               	movlw	0
  9117   0013C8  221E               	addwfc	(??i2___flmul+1)^0,f,c
  9118   0013CA  0E82               	movlw	130
  9119   0013CC  241D               	addwf	??i2___flmul^0,w,c
  9120   0013CE  6E2C               	movwf	i2___flmul@temp^0,c
  9121   0013D0  0EFF               	movlw	255
  9122   0013D2  201E               	addwfc	(??i2___flmul+1)^0,w,c
  9123   0013D4  6E2D               	movwf	(i2___flmul@temp+1)^0,c
  9124   0013D6  EF02  F00A         	goto	i2l3835
  9125   0013DA                     i2l3829:
  9126   0013DA  90D8               	bcf	status,0,c
  9127   0013DC  3628               	rlcf	i2___flmul@prod^0,f,c
  9128   0013DE  3629               	rlcf	(i2___flmul@prod+1)^0,f,c
  9129   0013E0  362A               	rlcf	(i2___flmul@prod+2)^0,f,c
  9130   0013E2  362B               	rlcf	(i2___flmul@prod+3)^0,f,c
  9131   0013E4  AE25               	btfss	(i2___flmul@grs+3)^0,7,c
  9132   0013E6  EFF7  F009         	goto	i2u382_41
  9133   0013EA  EFF9  F009         	goto	i2u382_40
  9134   0013EE                     i2u382_41:
  9135   0013EE  EFFA  F009         	goto	i2l805
  9136   0013F2                     i2u382_40:
  9137   0013F2  8028               	bsf	i2___flmul@prod^0,0,c
  9138   0013F4                     i2l805:
  9139   0013F4  90D8               	bcf	status,0,c
  9140   0013F6  3622               	rlcf	i2___flmul@grs^0,f,c
  9141   0013F8  3623               	rlcf	(i2___flmul@grs+1)^0,f,c
  9142   0013FA  3624               	rlcf	(i2___flmul@grs+2)^0,f,c
  9143   0013FC  3625               	rlcf	(i2___flmul@grs+3)^0,f,c
  9144   0013FE  062C               	decf	i2___flmul@temp^0,f,c
  9145   001400  A0D8               	btfss	status,0,c
  9146   001402  062D               	decf	(i2___flmul@temp+1)^0,f,c
  9147   001404                     i2l3835:
  9148   001404  AE2A               	btfss	(i2___flmul@prod+2)^0,7,c
  9149   001406  EF07  F00A         	goto	i2u383_41
  9150   00140A  EF09  F00A         	goto	i2u383_40
  9151   00140E                     i2u383_41:
  9152   00140E  EFED  F009         	goto	i2l3829
  9153   001412                     i2u383_40:
  9154   001412  0E00               	movlw	0
  9155   001414  6E26               	movwf	i2___flmul@aexp^0,c
  9156   001416  AE25               	btfss	(i2___flmul@grs+3)^0,7,c
  9157   001418  EF10  F00A         	goto	i2u384_41
  9158   00141C  EF12  F00A         	goto	i2u384_40
  9159   001420                     i2u384_41:
  9160   001420  EF36  F00A         	goto	i2l807
  9161   001424                     i2u384_40:
  9162   001424  0EFF               	movlw	255
  9163   001426  1422               	andwf	i2___flmul@grs^0,w,c
  9164   001428  6E1D               	movwf	??i2___flmul^0,c
  9165   00142A  0EFF               	movlw	255
  9166   00142C  1423               	andwf	(i2___flmul@grs+1)^0,w,c
  9167   00142E  6E1E               	movwf	(??i2___flmul+1)^0,c
  9168   001430  0EFF               	movlw	255
  9169   001432  1424               	andwf	(i2___flmul@grs+2)^0,w,c
  9170   001434  6E1F               	movwf	(??i2___flmul+2)^0,c
  9171   001436  0E7F               	movlw	127
  9172   001438  1425               	andwf	(i2___flmul@grs+3)^0,w,c
  9173   00143A  6E20               	movwf	(??i2___flmul+3)^0,c
  9174   00143C  501D               	movf	??i2___flmul^0,w,c
  9175   00143E  101E               	iorwf	(??i2___flmul+1)^0,w,c
  9176   001440  101F               	iorwf	(??i2___flmul+2)^0,w,c
  9177   001442  1020               	iorwf	(??i2___flmul+3)^0,w,c
  9178   001444  B4D8               	btfsc	status,2,c
  9179   001446  EF27  F00A         	goto	i2u385_41
  9180   00144A  EF29  F00A         	goto	i2u385_40
  9181   00144E                     i2u385_41:
  9182   00144E  EF2D  F00A         	goto	i2l808
  9183   001452                     i2u385_40:
  9184   001452                     i2l3843:
  9185   001452  0E01               	movlw	1
  9186   001454  6E26               	movwf	i2___flmul@aexp^0,c
  9187   001456  EF36  F00A         	goto	i2l807
  9188   00145A                     i2l808:
  9189   00145A  A028               	btfss	i2___flmul@prod^0,0,c
  9190   00145C  EF32  F00A         	goto	i2u386_41
  9191   001460  EF34  F00A         	goto	i2u386_40
  9192   001464                     i2u386_41:
  9193   001464  EF36  F00A         	goto	i2l807
  9194   001468                     i2u386_40:
  9195   001468  EF29  F00A         	goto	i2l3843
  9196   00146C                     i2l807:
  9197   00146C  5026               	movf	i2___flmul@aexp^0,w,c
  9198   00146E  B4D8               	btfsc	status,2,c
  9199   001470  EF3C  F00A         	goto	i2u387_41
  9200   001474  EF3E  F00A         	goto	i2u387_40
  9201   001478                     i2u387_41:
  9202   001478  EF62  F00A         	goto	i2l3855
  9203   00147C                     i2u387_40:
  9204   00147C  0E01               	movlw	1
  9205   00147E  2628               	addwf	i2___flmul@prod^0,f,c
  9206   001480  0E00               	movlw	0
  9207   001482  2229               	addwfc	(i2___flmul@prod+1)^0,f,c
  9208   001484  222A               	addwfc	(i2___flmul@prod+2)^0,f,c
  9209   001486  222B               	addwfc	(i2___flmul@prod+3)^0,f,c
  9210   001488  A02B               	btfss	(i2___flmul@prod+3)^0,0,c
  9211   00148A  EF49  F00A         	goto	i2u388_41
  9212   00148E  EF4B  F00A         	goto	i2u388_40
  9213   001492                     i2u388_41:
  9214   001492  EF62  F00A         	goto	i2l3855
  9215   001496                     i2u388_40:
  9216   001496  C028  F01D         	movff	i2___flmul@prod,??i2___flmul
  9217   00149A  C029  F01E         	movff	i2___flmul@prod+1,??i2___flmul+1
  9218   00149E  C02A  F01F         	movff	i2___flmul@prod+2,??i2___flmul+2
  9219   0014A2  C02B  F020         	movff	i2___flmul@prod+3,??i2___flmul+3
  9220   0014A6  3420               	rlcf	(??i2___flmul+3)^0,w,c
  9221   0014A8  3220               	rrcf	(??i2___flmul+3)^0,f,c
  9222   0014AA  321F               	rrcf	(??i2___flmul+2)^0,f,c
  9223   0014AC  321E               	rrcf	(??i2___flmul+1)^0,f,c
  9224   0014AE  321D               	rrcf	??i2___flmul^0,f,c
  9225   0014B0  C01D  F028         	movff	??i2___flmul,i2___flmul@prod
  9226   0014B4  C01E  F029         	movff	??i2___flmul+1,i2___flmul@prod+1
  9227   0014B8  C01F  F02A         	movff	??i2___flmul+2,i2___flmul@prod+2
  9228   0014BC  C020  F02B         	movff	??i2___flmul+3,i2___flmul@prod+3
  9229   0014C0  4A2C               	infsnz	i2___flmul@temp^0,f,c
  9230   0014C2  2A2D               	incf	(i2___flmul@temp+1)^0,f,c
  9231   0014C4                     i2l3855:
  9232   0014C4  BE2D               	btfsc	(i2___flmul@temp+1)^0,7,c
  9233   0014C6  EF6D  F00A         	goto	i2u389_41
  9234   0014CA  502D               	movf	(i2___flmul@temp+1)^0,w,c
  9235   0014CC  E108               	bnz	i2u389_40
  9236   0014CE  282C               	incf	i2___flmul@temp^0,w,c
  9237   0014D0  A0D8               	btfss	status,0,c
  9238   0014D2  EF6D  F00A         	goto	i2u389_41
  9239   0014D6  EF6F  F00A         	goto	i2u389_40
  9240   0014DA                     i2u389_41:
  9241   0014DA  EF79  F00A         	goto	i2l3859
  9242   0014DE                     i2u389_40:
  9243   0014DE  0E00               	movlw	0
  9244   0014E0  6E28               	movwf	i2___flmul@prod^0,c
  9245   0014E2  0E00               	movlw	0
  9246   0014E4  6E29               	movwf	(i2___flmul@prod+1)^0,c
  9247   0014E6  0E80               	movlw	128
  9248   0014E8  6E2A               	movwf	(i2___flmul@prod+2)^0,c
  9249   0014EA  0E7F               	movlw	127
  9250   0014EC  6E2B               	movwf	(i2___flmul@prod+3)^0,c
  9251   0014EE  EFA7  F00A         	goto	i2l3871
  9252   0014F2                     i2l3859:
  9253   0014F2  BE2D               	btfsc	(i2___flmul@temp+1)^0,7,c
  9254   0014F4  EF86  F00A         	goto	i2u390_40
  9255   0014F8  502D               	movf	(i2___flmul@temp+1)^0,w,c
  9256   0014FA  E106               	bnz	i2u390_41
  9257   0014FC  042C               	decf	i2___flmul@temp^0,w,c
  9258   0014FE  B0D8               	btfsc	status,0,c
  9259   001500  EF84  F00A         	goto	i2u390_41
  9260   001504  EF86  F00A         	goto	i2u390_40
  9261   001508                     i2u390_41:
  9262   001508  EF92  F00A         	goto	i2l815
  9263   00150C                     i2u390_40:
  9264   00150C  0E00               	movlw	0
  9265   00150E  6E28               	movwf	i2___flmul@prod^0,c
  9266   001510  0E00               	movlw	0
  9267   001512  6E29               	movwf	(i2___flmul@prod+1)^0,c
  9268   001514  0E00               	movlw	0
  9269   001516  6E2A               	movwf	(i2___flmul@prod+2)^0,c
  9270   001518  0E00               	movlw	0
  9271   00151A  6E2B               	movwf	(i2___flmul@prod+3)^0,c
  9272   00151C  0E00               	movlw	0
  9273   00151E  6E21               	movwf	i2___flmul@sign^0,c
  9274   001520  EFA7  F00A         	goto	i2l3871
  9275   001524                     i2l815:
  9276   001524  C02C  F027         	movff	i2___flmul@temp,i2___flmul@bexp
  9277   001528  0EFF               	movlw	255
  9278   00152A  1628               	andwf	i2___flmul@prod^0,f,c
  9279   00152C  0EFF               	movlw	255
  9280   00152E  1629               	andwf	(i2___flmul@prod+1)^0,f,c
  9281   001530  0E7F               	movlw	127
  9282   001532  162A               	andwf	(i2___flmul@prod+2)^0,f,c
  9283   001534  0E00               	movlw	0
  9284   001536  162B               	andwf	(i2___flmul@prod+3)^0,f,c
  9285   001538  A027               	btfss	i2___flmul@bexp^0,0,c
  9286   00153A  EFA1  F00A         	goto	i2u391_41
  9287   00153E  EFA3  F00A         	goto	i2u391_40
  9288   001542                     i2u391_41:
  9289   001542  EFA4  F00A         	goto	i2l3869
  9290   001546                     i2u391_40:
  9291   001546  8E2A               	bsf	(i2___flmul@prod+2)^0,7,c
  9292   001548                     i2l3869:
  9293   001548  90D8               	bcf	status,0,c
  9294   00154A  3027               	rrcf	i2___flmul@bexp^0,w,c
  9295   00154C  6E2B               	movwf	(i2___flmul@prod+3)^0,c
  9296   00154E                     i2l3871:
  9297   00154E  5021               	movf	i2___flmul@sign^0,w,c
  9298   001550  122B               	iorwf	(i2___flmul@prod+3)^0,f,c
  9299   001552  C028  F015         	movff	i2___flmul@prod,?i2___flmul
  9300   001556  C029  F016         	movff	i2___flmul@prod+1,?i2___flmul+1
  9301   00155A  C02A  F017         	movff	i2___flmul@prod+2,?i2___flmul+2
  9302   00155E  C02B  F018         	movff	i2___flmul@prod+3,?i2___flmul+3
  9303   001562                     i2l802:
  9304   001562  0012               	return		;funcret
  9305   001564                     __end_ofi2___flmul:
  9306                           	callstack 0
  9307                           
  9308                           	psect	rparam
  9309   000000                     
  9310                           	psect	temp
  9311   00005D                     btemp:
  9312                           	callstack 0
  9313   00005D                     	ds	1
  9314   000000                     int$flags	set	btemp
  9315   000000                     wtemp8	set	btemp+1
  9316   000000                     ttemp5	set	btemp+1
  9317   000000                     ttemp6	set	btemp+4
  9318   000000                     ttemp7	set	btemp+8
  9319                           
  9320                           	psect	idloc
  9321                           
  9322                           ;Config register IDLOC0 @ 0x200000
  9323                           ;	unspecified, using default values
  9324   200000                     	org	2097152
  9325   200000  FF                 	db	255
  9326                           
  9327                           ;Config register IDLOC1 @ 0x200001
  9328                           ;	unspecified, using default values
  9329   200001                     	org	2097153
  9330   200001  FF                 	db	255
  9331                           
  9332                           ;Config register IDLOC2 @ 0x200002
  9333                           ;	unspecified, using default values
  9334   200002                     	org	2097154
  9335   200002  FF                 	db	255
  9336                           
  9337                           ;Config register IDLOC3 @ 0x200003
  9338                           ;	unspecified, using default values
  9339   200003                     	org	2097155
  9340   200003  FF                 	db	255
  9341                           
  9342                           ;Config register IDLOC4 @ 0x200004
  9343                           ;	unspecified, using default values
  9344   200004                     	org	2097156
  9345   200004  FF                 	db	255
  9346                           
  9347                           ;Config register IDLOC5 @ 0x200005
  9348                           ;	unspecified, using default values
  9349   200005                     	org	2097157
  9350   200005  FF                 	db	255
  9351                           
  9352                           ;Config register IDLOC6 @ 0x200006
  9353                           ;	unspecified, using default values
  9354   200006                     	org	2097158
  9355   200006  FF                 	db	255
  9356                           
  9357                           ;Config register IDLOC7 @ 0x200007
  9358                           ;	unspecified, using default values
  9359   200007                     	org	2097159
  9360   200007  FF                 	db	255
  9361                           
  9362                           	psect	config
  9363                           
  9364                           ;Config register CONFIG1L @ 0x300000
  9365                           ;	PLL Prescaler Selection bits
  9366                           ;	PLLDIV = 1, No prescale (4 MHz oscillator input drives PLL directly)
  9367                           ;	System Clock Postscaler Selection bits
  9368                           ;	CPUDIV = OSC1_PLL2, [Primary Oscillator Src: /1][96 MHz PLL Src: /2]
  9369                           ;	USB Clock Selection bit (used in Full-Speed USB mode only; UCFG:FSEN = 1)
  9370                           ;	USBDIV = 1, USB clock source comes directly from the primary oscillator block with no 
      +                          postscale
  9371   300000                     	org	3145728
  9372   300000  00                 	db	0
  9373                           
  9374                           ;Config register CONFIG1H @ 0x300001
  9375                           ;	Oscillator Selection bits
  9376                           ;	FOSC = XT_XT, XT oscillator (XT)
  9377                           ;	Fail-Safe Clock Monitor Enable bit
  9378                           ;	FCMEN = OFF, Fail-Safe Clock Monitor disabled
  9379                           ;	Internal/External Oscillator Switchover bit
  9380                           ;	IESO = OFF, Oscillator Switchover mode disabled
  9381   300001                     	org	3145729
  9382   300001  00                 	db	0
  9383                           
  9384                           ;Config register CONFIG2L @ 0x300002
  9385                           ;	Power-up Timer Enable bit
  9386                           ;	PWRT = ON, PWRT enabled
  9387                           ;	Brown-out Reset Enable bits
  9388                           ;	BOR = ON, Brown-out Reset enabled in hardware only (SBOREN is disabled)
  9389                           ;	Brown-out Reset Voltage bits
  9390                           ;	BORV = 3, Minimum setting 2.05V
  9391                           ;	USB Voltage Regulator Enable bit
  9392                           ;	VREGEN = OFF, USB voltage regulator disabled
  9393   300002                     	org	3145730
  9394   300002  1E                 	db	30
  9395                           
  9396                           ;Config register CONFIG2H @ 0x300003
  9397                           ;	Watchdog Timer Enable bit
  9398                           ;	WDT = OFF, WDT disabled (control is placed on the SWDTEN bit)
  9399                           ;	Watchdog Timer Postscale Select bits
  9400                           ;	WDTPS = 32768, 1:32768
  9401   300003                     	org	3145731
  9402   300003  1E                 	db	30
  9403                           
  9404                           ; Padding undefined space
  9405   300004                     	org	3145732
  9406   300004  FF                 	db	255
  9407                           
  9408                           ;Config register CONFIG3H @ 0x300005
  9409                           ;	CCP2 MUX bit
  9410                           ;	CCP2MX = ON, CCP2 input/output is multiplexed with RC1
  9411                           ;	PORTB A/D Enable bit
  9412                           ;	PBADEN = OFF, PORTB<4:0> pins are configured as digital I/O on Reset
  9413                           ;	Low-Power Timer 1 Oscillator Enable bit
  9414                           ;	LPT1OSC = OFF, Timer1 configured for higher power operation
  9415                           ;	MCLR Pin Enable bit
  9416                           ;	MCLRE = ON, MCLR pin enabled; RE3 input pin disabled
  9417   300005                     	org	3145733
  9418   300005  81                 	db	129
  9419                           
  9420                           ;Config register CONFIG4L @ 0x300006
  9421                           ;	Stack Full/Underflow Reset Enable bit
  9422                           ;	STVREN = ON, Stack full/underflow will cause Reset
  9423                           ;	Single-Supply ICSP Enable bit
  9424                           ;	LVP = OFF, Single-Supply ICSP disabled
  9425                           ;	Dedicated In-Circuit Debug/Programming Port (ICPORT) Enable bit
  9426                           ;	ICPRT = OFF, ICPORT disabled
  9427                           ;	Extended Instruction Set Enable bit
  9428                           ;	XINST = OFF, Instruction set extension and Indexed Addressing mode disabled (Legacy mo
      +                          de)
  9429                           ;	Background Debugger Enable bit
  9430                           ;	DEBUG = 0x1, unprogrammed default
  9431   300006                     	org	3145734
  9432   300006  81                 	db	129
  9433                           
  9434                           ; Padding undefined space
  9435   300007                     	org	3145735
  9436   300007  FF                 	db	255
  9437                           
  9438                           ;Config register CONFIG5L @ 0x300008
  9439                           ;	Code Protection bit
  9440                           ;	CP0 = OFF, Block 0 (000800-001FFFh) is not code-protected
  9441                           ;	Code Protection bit
  9442                           ;	CP1 = OFF, Block 1 (002000-003FFFh) is not code-protected
  9443                           ;	Code Protection bit
  9444                           ;	CP2 = OFF, Block 2 (004000-005FFFh) is not code-protected
  9445                           ;	Code Protection bit
  9446                           ;	CP3 = OFF, Block 3 (006000-007FFFh) is not code-protected
  9447   300008                     	org	3145736
  9448   300008  0F                 	db	15
  9449                           
  9450                           ;Config register CONFIG5H @ 0x300009
  9451                           ;	Boot Block Code Protection bit
  9452                           ;	CPB = OFF, Boot block (000000-0007FFh) is not code-protected
  9453                           ;	Data EEPROM Code Protection bit
  9454                           ;	CPD = OFF, Data EEPROM is not code-protected
  9455   300009                     	org	3145737
  9456   300009  C0                 	db	192
  9457                           
  9458                           ;Config register CONFIG6L @ 0x30000A
  9459                           ;	Write Protection bit
  9460                           ;	WRT0 = OFF, Block 0 (000800-001FFFh) is not write-protected
  9461                           ;	Write Protection bit
  9462                           ;	WRT1 = OFF, Block 1 (002000-003FFFh) is not write-protected
  9463                           ;	Write Protection bit
  9464                           ;	WRT2 = OFF, Block 2 (004000-005FFFh) is not write-protected
  9465                           ;	Write Protection bit
  9466                           ;	WRT3 = OFF, Block 3 (006000-007FFFh) is not write-protected
  9467   30000A                     	org	3145738
  9468   30000A  0F                 	db	15
  9469                           
  9470                           ;Config register CONFIG6H @ 0x30000B
  9471                           ;	Configuration Register Write Protection bit
  9472                           ;	WRTC = OFF, Configuration registers (300000-3000FFh) are not write-protected
  9473                           ;	Boot Block Write Protection bit
  9474                           ;	WRTB = OFF, Boot block (000000-0007FFh) is not write-protected
  9475                           ;	Data EEPROM Write Protection bit
  9476                           ;	WRTD = OFF, Data EEPROM is not write-protected
  9477   30000B                     	org	3145739
  9478   30000B  E0                 	db	224
  9479                           
  9480                           ;Config register CONFIG7L @ 0x30000C
  9481                           ;	Table Read Protection bit
  9482                           ;	EBTR0 = OFF, Block 0 (000800-001FFFh) is not protected from table reads executed in ot
      +                          her blocks
  9483                           ;	Table Read Protection bit
  9484                           ;	EBTR1 = OFF, Block 1 (002000-003FFFh) is not protected from table reads executed in ot
      +                          her blocks
  9485                           ;	Table Read Protection bit
  9486                           ;	EBTR2 = OFF, Block 2 (004000-005FFFh) is not protected from table reads executed in ot
      +                          her blocks
  9487                           ;	Table Read Protection bit
  9488                           ;	EBTR3 = OFF, Block 3 (006000-007FFFh) is not protected from table reads executed in ot
      +                          her blocks
  9489   30000C                     	org	3145740
  9490   30000C  0F                 	db	15
  9491                           
  9492                           ;Config register CONFIG7H @ 0x30000D
  9493                           ;	Boot Block Table Read Protection bit
  9494                           ;	EBTRB = OFF, Boot block (000000-0007FFh) is not protected from table reads executed in
      +                           other blocks
  9495   30000D                     	org	3145741
  9496   30000D  40                 	db	64
  9497                           tosu	equ	0xFFF
  9498                           tosh	equ	0xFFE
  9499                           tosl	equ	0xFFD
  9500                           stkptr	equ	0xFFC
  9501                           pclatu	equ	0xFFB
  9502                           pclath	equ	0xFFA
  9503                           pcl	equ	0xFF9
  9504                           tblptru	equ	0xFF8
  9505                           tblptrh	equ	0xFF7
  9506                           tblptrl	equ	0xFF6
  9507                           tablat	equ	0xFF5
  9508                           prodh	equ	0xFF4
  9509                           prodl	equ	0xFF3
  9510                           indf0	equ	0xFEF
  9511                           postinc0	equ	0xFEE
  9512                           postdec0	equ	0xFED
  9513                           preinc0	equ	0xFEC
  9514                           plusw0	equ	0xFEB
  9515                           fsr0h	equ	0xFEA
  9516                           fsr0l	equ	0xFE9
  9517                           wreg	equ	0xFE8
  9518                           indf1	equ	0xFE7
  9519                           postinc1	equ	0xFE6
  9520                           postdec1	equ	0xFE5
  9521                           preinc1	equ	0xFE4
  9522                           plusw1	equ	0xFE3
  9523                           fsr1h	equ	0xFE2
  9524                           fsr1l	equ	0xFE1
  9525                           bsr	equ	0xFE0
  9526                           indf2	equ	0xFDF
  9527                           postinc2	equ	0xFDE
  9528                           postdec2	equ	0xFDD
  9529                           preinc2	equ	0xFDC
  9530                           plusw2	equ	0xFDB
  9531                           fsr2h	equ	0xFDA
  9532                           fsr2l	equ	0xFD9
  9533                           status	equ	0xFD8

Data Sizes:
    Strings     74
    Constant    0
    Data        38
    BSS         68
    Persistent  0
    Stack       0

Auto Spaces:
    Space          Size  Autos    Used
    COMRAM           94     57      92
    BANK0           160    118     157
    BANK1           256      0      32
    BANK2           256      0       0
    BANK3           256      0       0
    BANK4           256      0       0
    BANK5           256      0       0
    BANK6           256      0       0
    BANK7           256      0       0

Pointer List with Targets:

    fputs@s	PTR const unsigned char  size(2) Largest target is 32
		 -> dbuf(BANK1[32]), 

    fputs@fp	PTR struct _IO_FILE size(2) Largest target is 11
		 -> sprintf@f(BANK0[11]), 

    fputc@fp...source	PTR const unsigned char  size(2) Largest target is 0

    fputc@fp...buffer	PTR unsigned char  size(2) Largest target is 0

    fputc@fp	PTR struct _IO_FILE size(2) Largest target is 11
		 -> sprintf@f(BANK0[11]), 

    atoi@s	PTR const unsigned char  size(2) Largest target is 16
		 -> STR_2(CODE[16]), STR_1(CODE[16]), 

    vfprintf@ap	PTR PTR void  size(2) Largest target is 2
		 -> sprintf@ap(BANK0[2]), 

    vfprintf@fp	PTR struct _IO_FILE size(2) Largest target is 11
		 -> sprintf@f(BANK0[11]), 

    vfprintf@fmt	PTR const unsigned char  size(2) Largest target is 16
		 -> STR_2(CODE[16]), STR_1(CODE[16]), 

    vfprintf@cfmt	PTR unsigned char  size(2) Largest target is 16
		 -> STR_2(CODE[16]), STR_1(CODE[16]), 

    vfpfcnvrt@fp	PTR struct _IO_FILE size(2) Largest target is 11
		 -> sprintf@f(BANK0[11]), 

    vfpfcnvrt@cp	PTR unsigned char  size(2) Largest target is 16
		 -> STR_2(CODE[16]), STR_1(CODE[16]), 

    vfpfcnvrt@ap	PTR PTR void  size(2) Largest target is 2
		 -> sprintf@ap(BANK0[2]), 

    vfpfcnvrt@fmt	PTR PTR unsigned char  size(2) Largest target is 2
		 -> vfprintf@cfmt(BANK0[2]), 

    S1017$vp	PTR void  size(2) Largest target is 0

    convarg.vp	PTR void  size(2) Largest target is 0

    dtoa@fp	PTR struct _IO_FILE size(2) Largest target is 11
		 -> sprintf@f(BANK0[11]), 

    pad@fp	PTR struct _IO_FILE size(2) Largest target is 11
		 -> sprintf@f(BANK0[11]), 

    pad@buf	PTR unsigned char  size(2) Largest target is 32
		 -> dbuf(BANK1[32]), 

    sprintf@fmt	PTR const unsigned char  size(2) Largest target is 16
		 -> STR_2(CODE[16]), STR_1(CODE[16]), 

    sprintf@s	PTR unsigned char  size(2) Largest target is 20
		 -> aux(COMRAM[20]), 

    sprintf@ap	PTR void [1] size(2) Largest target is 2
		 -> ?_sprintf(BANK0[2]), 

    S964$source	PTR const unsigned char  size(2) Largest target is 0

    f...source	PTR const unsigned char  size(2) Largest target is 0

    S964$buffer	PTR unsigned char  size(2) Largest target is 0

    f...buffer	PTR unsigned char  size(2) Largest target is 0

    LCD_Out@text	PTR unsigned char  size(2) Largest target is 21
		 -> STR_4(CODE[21]), STR_3(CODE[21]), aux(COMRAM[20]), 


Critical Paths under _main in COMRAM

    None.

Critical Paths under _INTERRUPTS in COMRAM

    _INTERRUPTS->i2___fltol
    i2___xxtofl->i2___wmul
    i2___fltol->i2___flmul
    i2___flmul->i2___xxtofl

Critical Paths under _main in BANK0

    _main->_pid
    _sprintf->_vfprintf
    _vfprintf->_vfpfcnvrt
    _vfpfcnvrt->_dtoa
    _dtoa->_pad
    _pad->_fputs
    _fputs->_fputc
    _abs->___aomod
    _atoi->___wmul
    _pid->___flsub
    ___flsub->___fladd
    _PWM_Init->___fltol
    ___fladd->___flmul
    _PWM_Duty->___fltol
    ___fltol->___fladd
    ___flmul->___fldiv
    ___fldiv->___xxtofl
    _LCD_Out->_LCD_XY
    _LCD_XY->_LCD_Cmd
    _LCD_Cmd->_enviar_dato
    _LCD_Chr_Cp->_enviar_dato
    _LCD_Init->_enviar_dato

Critical Paths under _INTERRUPTS in BANK0

    None.

Critical Paths under _main in BANK1

    None.

Critical Paths under _INTERRUPTS in BANK1

    None.

Critical Paths under _main in BANK2

    None.

Critical Paths under _INTERRUPTS in BANK2

    None.

Critical Paths under _main in BANK3

    None.

Critical Paths under _INTERRUPTS in BANK3

    None.

Critical Paths under _main in BANK4

    None.

Critical Paths under _INTERRUPTS in BANK4

    None.

Critical Paths under _main in BANK5

    None.

Critical Paths under _INTERRUPTS in BANK5

    None.

Critical Paths under _main in BANK6

    None.

Critical Paths under _INTERRUPTS in BANK6

    None.

Critical Paths under _main in BANK7

    None.

Critical Paths under _INTERRUPTS in BANK7

    None.

Call Graph Tables:

 ---------------------------------------------------------------------------------
 (Depth) Function   	        Calls       Base Space   Used Autos Params    Refs
 ---------------------------------------------------------------------------------
 (0) _main                                                 0     0      0   39512
                            _LCD_Cmd
                           _LCD_Init
                            _LCD_Out
                           _PWM_Duty
                           _PWM_Init
                          _PWM_Start
                                _pid
                            _sprintf
                          _tmr0_init
                            _tmr0_on
 ---------------------------------------------------------------------------------
 (1) _tmr0_on                                              0     0      0       0
 ---------------------------------------------------------------------------------
 (1) _tmr0_init                                            0     0      0       0
 ---------------------------------------------------------------------------------
 (1) _sprintf                                             21    15      6    7592
                                             91 BANK0     19    13      6
                           _vfprintf
 ---------------------------------------------------------------------------------
 (2) _vfprintf                                             8     2      6    7087
                                             83 BANK0      8     2      6
                          _vfpfcnvrt
 ---------------------------------------------------------------------------------
 (3) _vfpfcnvrt                                           24    18      6    6726
                                             62 BANK0     21    15      6
                               _atoi
                               _dtoa
                              _fputc
                            _isdigit
 ---------------------------------------------------------------------------------
 (4) _dtoa                                                35    25     10    3867
                                             27 BANK0     35    25     10
                            ___aodiv
                            ___aomod
                                _abs
                                _pad
 ---------------------------------------------------------------------------------
 (5) _pad                                                 11     5      6    2195
                                             16 BANK0     11     5      6
                              _fputc
                              _fputs
 ---------------------------------------------------------------------------------
 (6) _fputs                                                7     3      4    1083
                                              9 BANK0      7     3      4
                              _fputc
 ---------------------------------------------------------------------------------
 (4) _fputc                                                9     5      4     682
                                              0 BANK0      9     5      4
                              _putch
 ---------------------------------------------------------------------------------
 (5) _putch                                                1     1      0       0
 ---------------------------------------------------------------------------------
 (5) _abs                                                  4     2      2     142
                                             18 BANK0      4     2      2
                            ___aomod (ARG)
 ---------------------------------------------------------------------------------
 (5) ___aomod                                             18     2     16     448
                                              0 BANK0     18     2     16
 ---------------------------------------------------------------------------------
 (5) ___aodiv                                             26    10     16     452
                                              0 BANK0     26    10     16
 ---------------------------------------------------------------------------------
 (4) _atoi                                                 9     7      2    1180
                                              6 BANK0      9     7      2
                             ___wmul
                            _isdigit
                            _isspace
 ---------------------------------------------------------------------------------
 (5) _isspace                                              5     3      2     207
                                              0 BANK0      5     3      2
 ---------------------------------------------------------------------------------
 (4) _isdigit                                              4     2      2     237
                                              0 BANK0      4     2      2
 ---------------------------------------------------------------------------------
 (5) ___wmul                                               6     2      4     411
                                              0 BANK0      6     2      4
 ---------------------------------------------------------------------------------
 (1) _pid                                                 30    26      4   13406
                                             88 BANK0     30    26      4
                            ___fladd
                            ___fldiv
                             ___flge
                            ___flmul
                            ___flsub
                           ___xxtofl
 ---------------------------------------------------------------------------------
 (2) ___flsub                                              8     0      8    3497
                                             80 BANK0      8     0      8
                            ___fladd
                            ___fldiv (ARG)
                            ___flmul (ARG)
 ---------------------------------------------------------------------------------
 (2) ___flge                                              12     4      8     486
                                              0 BANK0     12     4      8
 ---------------------------------------------------------------------------------
 (1) _PWM_Start                                            0     0      0       0
 ---------------------------------------------------------------------------------
 (1) _PWM_Init                                            18    15      3   10028
                                             90 BANK0     18    15      3
                            ___fladd
                            ___fldiv
                            ___flmul
                            ___fltol
                           ___xxtofl
 ---------------------------------------------------------------------------------
 (3) ___fladd                                             16     8      8    3038
                                             64 BANK0     16     8      8
                            ___fldiv (ARG)
                            ___flmul (ARG)
                           ___xxtofl (ARG)
 ---------------------------------------------------------------------------------
 (1) _PWM_Duty                                             8     4      4    6757
                                             90 BANK0      8     4      4
                            ___fldiv
                            ___flmul
                            ___fltol
                           ___xxtofl
 ---------------------------------------------------------------------------------
 (2) ___xxtofl                                            14    10      4     752
                                              0 BANK0     14    10      4
 ---------------------------------------------------------------------------------
 (2) ___fltol                                             10     6      4     507
                                             80 BANK0     10     6      4
                            ___fladd (ARG)
                            ___fldiv (ARG)
                            ___flmul (ARG)
                           ___xxtofl (ARG)
 ---------------------------------------------------------------------------------
 (2) ___flmul                                             25    17      8    3044
                                             39 BANK0     25    17      8
                            ___fldiv (ARG)
                           ___xxtofl (ARG)
 ---------------------------------------------------------------------------------
 (2) ___fldiv                                             25    17      8    2311
                                             14 BANK0     25    17      8
                           ___xxtofl (ARG)
 ---------------------------------------------------------------------------------
 (1) _LCD_Out                                              4     1      3    1355
                                              8 BANK0      4     1      3
                         _LCD_Chr_Cp
                             _LCD_XY
 ---------------------------------------------------------------------------------
 (2) _LCD_XY                                               4     3      1     460
                                              4 BANK0      4     3      1
                            _LCD_Cmd
 ---------------------------------------------------------------------------------
 (3) _LCD_Cmd                                              1     1      0     198
                                              3 BANK0      1     1      0
                        _enviar_dato
 ---------------------------------------------------------------------------------
 (2) _LCD_Chr_Cp                                           1     1      0     198
                                              3 BANK0      1     1      0
                        _enviar_dato
 ---------------------------------------------------------------------------------
 (1) _LCD_Init                                             1     1      0     176
                                              3 BANK0      1     1      0
                        _enviar_dato
 ---------------------------------------------------------------------------------
 (4) _enviar_dato                                          3     3      0     176
                                              0 BANK0      3     3      0
 ---------------------------------------------------------------------------------
 Estimated maximum stack depth 6
 ---------------------------------------------------------------------------------
 (Depth) Function   	        Calls       Base Space   Used Autos Params    Refs
 ---------------------------------------------------------------------------------
 (9) _INTERRUPTS                                           2     2      0    2332
                                             55 COMRAM     2     2      0
                          i2___flmul
                          i2___fltol
                           i2___wmul
                         i2___xxtofl
 ---------------------------------------------------------------------------------
 (10) i2___xxtofl                                         14    10      4     348
                                              6 COMRAM    14    10      4
                           i2___wmul (ARG)
 ---------------------------------------------------------------------------------
 (10) i2___wmul                                            6     2      4     211
                                              0 COMRAM     6     2      4
 ---------------------------------------------------------------------------------
 (10) i2___fltol                                          10     6      4     255
                                             45 COMRAM    10     6      4
                          i2___flmul (ARG)
                           i2___wmul (ARG)
                         i2___xxtofl (ARG)
 ---------------------------------------------------------------------------------
 (10) i2___flmul                                          25    17      8    1518
                                             20 COMRAM    25    17      8
                           i2___wmul (ARG)
                         i2___xxtofl (ARG)
 ---------------------------------------------------------------------------------
 Estimated maximum stack depth 10
 ---------------------------------------------------------------------------------

 Call Graph Graphs:

 _main (ROOT)
   _LCD_Cmd
     _enviar_dato
   _LCD_Init
     _enviar_dato
   _LCD_Out
     _LCD_Chr_Cp
       _enviar_dato
     _LCD_XY
       _LCD_Cmd
   _PWM_Duty
     ___fldiv
       ___xxtofl (ARG)
     ___flmul
       ___fldiv (ARG)
       ___xxtofl (ARG)
     ___fltol
       ___fladd (ARG)
         ___fldiv (ARG)
         ___flmul (ARG)
         ___xxtofl (ARG)
       ___fldiv (ARG)
       ___flmul (ARG)
       ___xxtofl (ARG)
     ___xxtofl
   _PWM_Init
     ___fladd
     ___fldiv
     ___flmul
     ___fltol
     ___xxtofl
   _PWM_Start
   _pid
     ___fladd
     ___fldiv
     ___flge
     ___flmul
     ___flsub
       ___fladd
       ___fldiv (ARG)
       ___flmul (ARG)
     ___xxtofl
   _sprintf
     _vfprintf
       _vfpfcnvrt
         _atoi
           ___wmul
           _isdigit
           _isspace
         _dtoa
           ___aodiv
           ___aomod
           _abs
             ___aomod (ARG)
           _pad
             _fputc
               _putch
             _fputs
               _fputc
         _fputc
         _isdigit
   _tmr0_init
   _tmr0_on

 _INTERRUPTS (ROOT)
   i2___flmul
     i2___wmul (ARG)
     i2___xxtofl (ARG)
       i2___wmul (ARG)
   i2___fltol
     i2___flmul (ARG)
     i2___wmul (ARG)
     i2___xxtofl (ARG)
   i2___wmul
   i2___xxtofl

 Address spaces:
Name               Size   Autos  Total    Cost      Usage
BIGRAM             7FF      0       0      29        0.0%
EEDATA             100      0       0       0        0.0%
BITBANK7           100      0       0      18        0.0%
BANK7              100      0       0      19        0.0%
BITBANK6           100      0       0      16        0.0%
BANK6              100      0       0      17        0.0%
BITBANK5           100      0       0      14        0.0%
BANK5              100      0       0      15        0.0%
BITBANK4           100      0       0      12        0.0%
BANK4              100      0       0      13        0.0%
BITBANK3           100      0       0      10        0.0%
BANK3              100      0       0      11        0.0%
BITBANK2           100      0       0       8        0.0%
BANK2              100      0       0       9        0.0%
BITBANK1           100      0       0       6        0.0%
BANK1              100      0      20       7       12.5%
BITBANK0            A0      0       0       4        0.0%
BANK0               A0     76      9D       5       98.1%
BITCOMRAM           5E      0       0       0        0.0%
COMRAM              5E     39      5C       1       97.9%
BITBIGSFRlllll      2C      0       0      27        0.0%
BITBIGSFRlllhhl     27      0       0      25        0.0%
BITBIGSFRlh         19      0       0      21        0.0%
BITBIGSFRh           D      0       0      20        0.0%
BITBIGSFRllhh        8      0       0      22        0.0%
BITBIGSFRllhl        8      0       0      23        0.0%
BITBIGSFRllllh       6      0       0      26        0.0%
BITBIGSFRlllhhh      2      0       0      24        0.0%
BIGSFR               0      0       0     200        0.0%
BITSFR               0      0       0     200        0.0%
SFR                  0      0       0     200        0.0%
STACK                0      0       0       2        0.0%
NULL                 0      0       0       0        0.0%
ABS                  0      0     119      28        0.0%
DATA                 0      0     119       3        0.0%
CODE                 0      0       0       0        0.0%


Microchip Technology PIC18 Macro Assembler V2.40 build 20220703182018 
Symbol Table                                                                                   Mon Jan 08 14:45:18 2024

            ?_LCD_Chr_Cp 0001             ___fldiv@aexp 0086             ___fldiv@bexp 0085  
           ___fldiv@sign 007E                       l91 382C                       l88 37FE  
                     l99 1C50                       _kd 003A                       _cv 00E6  
                     _ki 003E                       _kp 00F7      ___wmul@multiplicand 0062  
                    l112 3378                      l121 3822                      l115 2C9E  
                    l124 3810                      l133 34B0                      l311 2A1E  
                    l145 3520                      l181 3426                      l167 3830  
                    l184 37A0                      l178 23C2                      l454 2EAC  
                    l712 0A3C                      l481 2DA6                      l721 0D0C  
                    l713 0A2A                      l449 2E66                      l802 1138  
                    l714 09F0                      l298 28B8                      l900 1CEE  
                    l805 0FCA                      l902 1CF6                      l815 10FA  
                    l807 1042                      l903 1D3C                      l808 1030  
                    l729 0B56                      l842 257A                      l738 0C26  
                    l754 3708                      l771 1722                      l739 0C14  
                    l780 180A                      l916 1F0A                      l853 2512  
                    l766 18FE                      l846 24B6                      l862 35DE  
                    l839 241E                      l951 374A                      l768 175E  
                    l944 3630                      l777 17A4                      l938 21AA  
                    l779 181C                      l948 3742                      l892 32A6  
                    l973 2B64                      l798 0DD4                      l894 32C8  
                    l976 2B6C                      l889 3262                      l979 3778  
                    l987 36C0                      _PR2 000FCB                      _cv1 00E2  
                    _abs 370A                      _aux 0046                      _pad 321A  
                    _pid 1900              ?_INTERRUPTS 0001               i2___xxtofl 257C  
                    wreg 000FE8              i2___flmul@a 0019              i2___flmul@b 0015  
           ___flmul@aexp 0098             ___flmul@bexp 0099             ___flmul@sign 0093  
           ___flmul@temp 009E             ___flmul@prod 009A          __end_of_LCD_Cmd 3812  
        __end_of_LCD_Out 3522             ___fltol@exp1 00B9                     l1002 3166  
                   l1010 3678                     l1013 3832                     ?_abs 0072  
                   l3001 0BAA                     l3003 0BB8                     l3011 0BD6  
                   l3005 0BC0                     l3013 0BE4                     l3101 213E  
                   l3023 0C36                     l3031 0C8C                     l3015 0BE8  
                   l3007 0BC4                     l3121 342C                     l3041 0CDE  
                   l3033 0C9C                     l3025 0C42                     l3017 0BF6  
                   l3009 0BD4                     l3105 216E                     l3123 3430  
                   l3211 169C                     l3203 1678                     l3051 0CFC  
                   l3043 0CE4                     l3035 0CAC                     l3027 0C50  
                   l3019 0C0C                     l3125 343C                     l3133 3460  
                   l3221 16EE                     l3213 16B6                     l3205 1688  
                   l3301 0D4C                     l3045 0CE6                     l3037 0CCC  
                   l3029 0C8A                     l4101 2AB8                     l3061 1F4C  
                   l3109 2180                     l3127 3448                     l3135 349C  
                   l3231 174A                     l3223 16FE                     l3215 16C6  
                   l3207 1688                     l3311 0D7E                     l3303 0D5C  
                   l3047 0CEC                     l3039 0CD0                     l4103 2398  
                   l3063 1F50                     l3055 1F0C                     l3145 3816  
                   l3137 34AE                     l4105 3476                     l3129 3454  
                   l3241 178A                     l3233 174C                     l3225 1712  
                   l3217 16D6                     l3161 1592                     l3153 1564  
                   l3401 10B4                     l3321 0DBE                     l3313 0D8C  
                   l3305 0D62                     l3049 0CFA                     l2601 2768  
                   l3081 201C                     l3073 1F7C                     l3065 1F5C  
                   l3057 1F30                     l3147 3818                     l3251 17C6  
                   l3243 1794                     l3235 175C                     l3227 1720  
                   l3219 16E6                     l3171 15CC                     l3163 15A2  
                   l3155 1572                     l3411 111C                     l3403 10C8  
                   l3331 0E08                     l3323 0DC4                     l3315 0D8E  
                   l3307 0D72                     l2611 27C4                     l2603 2776  
                   l3091 2066                     l3083 202A                     l3067 1F5E  
                   l3075 1FB0                     l3059 1F3E                     l3149 3820  
                   l3261 1838                     l3253 17D4                     l3245 17A2  
                   l3237 176E                     l3229 172C                     l3181 15F8  
                   l3173 15D2                     l3165 15B2                     l3157 1580  
                   l3413 111E                     l3405 10E2                     l3341 0E58  
                   l3333 0E14                     l3325 0DE4                     l3317 0D9E  
                   l3309 0D78                     l3501 2444                     l3421 36C2  
                   l2701 3680                     l2621 282E                     l2613 27CC  
                   l2605 2796                     l3093 20A0                     l3085 2038  
                   l3077 1FC2                     l3069 1F70                     l2711 2B72  
                   l3271 18A4                     l3263 1846                     l3255 1802  
                   l3239 1784                     l3247 17B4                     l3191 1632  
                   l3183 1608                     l3175 15D8                     l3167 15B4  
                   l3159 1582                     l3407 10FE                     l3415 1124  
                   l3351 0E9A                     l3343 0E64                     l3335 0E1E  
                   l3327 0DF4                     l3319 0DAE                     l3511 249E  
                   l3431 2DE8                     l3423 36D4                     l2703 3694  
                   l2631 2878                     l2623 284E                     l2615 27E0  
                   l2607 279A                     l3095 20B0                     l3087 2058  
                   l3079 1FE6                     l2721 2BF2                     l2713 2B84  
                   l3281 18F2                     l3273 18BE                     l3265 1870  
                   l3249 17C2                     l3193 1648                     l3185 1618  
                   l3177 15E6                     l3169 15BC                     l3417 1128  
                   l3409 110E                     l3361 0EFC                     l3353 0EA6  
                   l3345 0E70                     l3337 0E34                     l3521 2502  
                   l3513 24A0                     l3505 2458                     l3601 236A  
                   l3441 2E54                     l3433 2E16                     l2705 36B6  
                   l2633 2898                     l2625 2850                     l2617 27EE  
                   l2609 27A6                     l2641 28CE                     l2801 1EB6  
                   l3097 20CC                     l2731 2C2E                     l2723 2C0C  
                   l2715 2B8C                     l3283 18F4                     l3275 18DA  
                   l3259 182C                     l3267 1874                     l3195 1658  
                   l3187 161A                     l3179 15E8                     l3371 0F92  
                   l3363 0F08                     l3355 0EB6                     l3347 0E7E  
                   l3339 0E40                     l3291 0D0E                     l3451 2CB8  
                   l3531 255A                     l3523 2520                     l3515 24AC  
                   l3507 2460                     l3603 2376                     l3443 2EA4  
                   l3435 2E26                     l3427 2DA8                     l2707 36BA  
                   l2627 2862                     l2619 2800                     l2651 293E  
                   l2643 28EE                     l2571 30CC                     l2803 1EC4  
                   l3099 20E8                     l2741 2C94                     l2733 2C48  
                   l2725 2C0E                     l2717 2BA8                     l3277 18DE  
                   l3269 188E                     l3197 1660                     l3189 1622  
                   l3381 0FE8                     l3373 0FB0                     l3365 0F24  
                   l3357 0ED0                     l3349 0E8A                     l3293 0D1C  
                   l3461 2D08                     l3533 2568                     l3525 2522  
                   l3517 24E8                     l3509 246C                     l2901 0952  
                   l3445 2EAA                     l3437 2E34                     l3429 2DD8  
                   l2821 2A56                     l2813 2A20                     l2629 2868  
                   l2661 29B6                     l2653 2946                     l2645 28F2  
                   l2637 28BA                     l2573 30EA                     l2565 309C  
                   l2581 3640                     l2805 1ED4                     l3541 35EC  
                   l3621 37E8                     l2743 2C96                     l2735 2C68  
                   l2727 2C16                     l2719 2BCC                     l3551 32D8  
                   l3279 18EC                     l3199 1664                     l3391 1052  
                   l3383 0FEC                     l3375 0FBA                     l3367 0F4E  
                   l3359 0EE0                     l3295 0D2A                     l3471 2D32  
                   l3463 2D0C                     l3455 2CCC                     l3535 256A  
                   l3527 2526                     l3519 24F4                     l2911 0966  
                   l2903 0956                     l3607 2382                     l3439 2E46  
                   l2823 2A8A                     l2815 2A36                     l2663 29C8  
                   l2655 295A                     l2647 2900                     l2639 28C0  
                   l2575 3120                     l2567 30B0                     l2583 3652  
                   l2807 1EDA                     l3543 360A                     l3631 37FC  
                   l3623 37EC                     l2745 2C98                     l2737 2C8A  
                   l2729 2C18                     l3561 3324                     l3553 32EA  
                   l3393 105E                     l3385 0FFA                     l3377 0FC8  
                   l3369 0F84                     l3297 0D2C                     l3481 2D5A  
                   l3473 2D3C                     l3465 2D1A                     l3457 2CF6  
                   l3449 2CA0                     l3529 254A                     l2921 097A  
                   l2913 096A                     l2905 095A                     l3609 23B6  
                   l2825 2A92                     l2593 2730                     l2657 2968  
                   l2665 29CE                     l2649 2920                     l2569 30C2  
                   l2585 3658                     l2681 325A                     l2673 321A  
                   l2809 1EEA                     l2761 1CB8                     l2753 1C52  
                   l3545 3626                     l3641 35B0                     l3625 37EE  
                   l3633 382A                     l2747 2C9A                     l2739 2C8C  
                   l3571 3354                     l3563 332A                     l3555 32F0  
                   l3651 34EA                     l3395 106C                     l3387 1028  
                   l3379 0FDA                     l3299 0D3C                     l3483 2D66  
                   l3475 2D46                     l3459 2CF8                     l2923 097E  
                   l2915 096E                     l2907 095E                     l2931 098E  
                   l3619 382E                     l2587 377A                     l2835 2B06  
                   l2827 2A9A                     l2819 2A3A                     l2595 2736  
                   l2667 29DE                     l2659 2996                     l2691 370A  
                   l2579 3632                     l2683 326E                     l2675 322A  
                   l2771 1D0E                     l2763 1CC6                     l2755 1C72  
                   l4099 1FA2                     l3539 35E0                     l3643 35CC  
                   l3635 358E                     l3627 37F0                     l2749 2C9C  
                   l3573 3362                     l3565 3338                     l3557 3306  
                   l3549 32CA                     l2845 3804                     l3653 34F0  
                   l3397 1096                     l3485 2D76                     l3493 23C8  
                   l2941 09FE                     l2933 0992                     l2925 0982  
                   l2917 0972                     l2909 0962                     l2861 087A  
                   l2853 084C                     l3581 21AE                     l3661 19A4  
                   l2589 3798                     l2837 2B36                     l2829 2ACE  
                   l2597 2744                     l2669 29FE                     l2693 3726  
                   l2685 3282                     l2677 323E                     l2781 1D44  
                   l2773 1D14                     l2765 1CC8                     l2757 1C88  
                   l3637 35A0                     l3629 37F2                     ?_pad 0070  
                   l3575 336A                     l3567 3340                     l3559 330E  
                   l2847 3806                     l3647 34B6                     l3399 109A  
                   l3487 2D86                     l3495 23DA                     l2951 0A28  
                   l2943 0A0A                     l2935 09BC                     l2927 0986  
                   l2919 0976                     l2871 08B4                     l2863 088A  
                   l2855 085A                     l3591 22DE                     l3583 21FC  
                   l3671 1B86                     l3663 1A22                     l3655 1900  
                   l2695 374C                     l2839 2B48                     l2599 2764  
                   l2687 3288                     l2679 324E                     l2791 1DE4  
                   l2783 1D4E                     l2775 1D24                     l2767 1CE2  
                   l2759 1C98                     l3639 35A8                     l3569 334E  
                   l2849 380E                     l3649 34C6                     l3489 2D96  
                   l3497 23E8                     l2961 0A7E                     l2953 0A4A  
                   l2945 0A0E                     l2937 09D8                     l2929 098A  
                   l2881 08E2                     l2873 08BA                     l2865 089A  
                   l2857 0868                     l3593 2352                     l3585 220E  
                   l3681 1BFC                     l3673 1B96                     l3665 1AA0  
                   l3657 1912                     l2689 32B4                     l2785 1D54  
                   l2793 1E48                     l2777 1D30                     l2769 1CFE  
                   l3499 242E                     l3691 33F8                     l2971 0AB8  
                   l2963 0A8C                     l2955 0A5A                     l2947 0A1C  
                   l2939 09E8                     l2891 0916                     l2883 08E4  
                   l2875 08CC                     l2867 089C                     l2859 086A  
                   l3595 2356                     l3587 2212                     l3579 21AC  
                   l3683 1C30                     l3675 1BA6                     l3667 1AD4  
                   l3659 194A                     l2699 367A                     l2795 1E64  
                   l2787 1DD8                     l2779 1D38                     l3693 3412  
                   l2981 0B24                     l2973 0ABA                     l2965 0A9A  
                   l2949 0A1E                     l2885 08F4                     l2893 091E  
                   l2877 08CE                     l2869 08A4                     l3597 235A  
                   l3589 2246                     l3685 1C40                     l3677 1BB6  
                   l3669 1B08                     l2797 1E82                     l2789 1DDE  
                   l3941 2FB4                     l2991 0B7C                     l2983 0B26  
                   l2975 0AC4                     l2967 0AA6                     l2959 0A6E  
                   l2895 092E                     l2887 0904                     l2879 08D4  
                   l3599 2362                     l3679 1BEC                     l2799 1E9C  
                   l3951 2FC0                     l3943 2FB8                     l3689 337A  
                   l2985 0B36                     l2969 0AAA                     l2977 0ACA  
                   l2897 0940                     l2889 0914                     l3961 2FE0  
                   l3953 2FC2                     l3945 2FBA                     l2995 0B90  
                   l2979 0AF0                     l2987 0B46                     l2899 094E  
                   l3971 301E                     l3963 2FE4                     l3955 2FC4  
                   l3947 2FBC                     l2997 0B9A                     l2989 0B6C  
                   l3973 303C                     l3965 2FE8                     l3957 2FC8  
                   l3949 2FBE                     ?_pid 00B8                     l2999 0BA8  
                   l3975 3050                     l3967 2FEC                     l3959 2FCE  
                   l3977 306C                     l3969 300A                     l3979 3080  
                   STR_1 082B                     STR_2 083B                     STR_3 0816  
                   STR_4 0801                     u2101 27A0                     u2110 27C4  
                   u2030 30B0                     u2111 27C0                     u2031 30AC  
                   u3000 15F8                     u2120 27EE                     u2200 29DE  
                   u2040 30C2                     u3001 15F4                     u2121 27EA  
                   u2201 29DA                     u2041 30BE                     u3010 1608  
                   u2130 282E                     u2050 30EA                     u2210 322A  
                   u3011 1604                     u2131 282A                     u2051 30E6  
                   u2211 3226                     u3100 17C2                     u3020 1648  
                   u2140 2878                     u2060 3120                     u2220 324E  
                   u3101 17BE                     u3021 1644                     u2141 2874  
                   u2061 311C                     u2221 324A                     u3110 17D4  
                   u3030 1688                     u2150 28CE                     u2070 3678  
                   u2230 32A6                     u3111 17D0                     u3031 1684  
                   u2151 28CA                     u2071 3674                     u2231 32A2  
                   u3120 1802                     u3040 16FE                     u3200 0D3C  
                   u2080 2744                     u2160 2900                     u2240 32B4  
                   u2400 1E64                     u2305 2BB0                     u3121 17FE  
                   u3041 16FA                     u3201 0D38                     u2081 2740  
                   u2161 28FC                     u2241 32B0                     u2401 1E60  
                   u3130 1818                     u3050 1720                     u3210 0D4C  
                   u2090 2776                     u2170 293E                     u2250 3726  
                   u2410 1E82                     u2330 1C84                     u2315 2BD4  
                   u3131 1814                     u3051 171C                     u3211 0D48  
                   u2091 2772                     u2171 293A                     u2251 3722  
                   u2411 1E7E                     u2331 1C7E                     u3140 182C  
                   u3060 174A                     u3300 0FFA                     u3220 0D8C  
                   u2500 0868                     u2260 3772                     u2180 2968  
                   u2420 1E9C                     u2340 1C86                     u2325 2BFA  
                   u3141 1828                     u3061 1746                     u3301 0FF6  
                   u3221 0D88                     u2501 0864                     u2261 376C  
                   u2181 2964                     u2421 1E98                     u3150 1846  
                   u3070 176E                     u3310 1028                     u3230 0D9E  
                   u2510 087A                     u2270 3774                     u2190 2996  
                   u2430 1EB6                     u2350 1C98                     u3151 1842  
                   u3071 176A                     u3311 1024                     u3231 0D9A  
                   u2511 0876                     u2191 2992                     u2431 1EB2  
                   u2351 1C94                     u3160 188E                     u3080 1784  
                   u3320 103E                     u3240 0DAE                     u2600 09D4  
                   u2520 088A                     u3400 2E34                     u2280 3694  
                   u2440 1EC4                     u2360 1CC6                     u3161 188A  
                   u3081 1780                     u3321 103A                     u3241 0DAA  
                   u2601 09CE                     u2521 0886                     u3401 2E30  
                   u2281 3690                     u2441 1EC0                     u2361 1CC2  
                   u3170 18BE                     u3090 17A2                     u3330 1052  
                   u3250 0DE4                     u2610 09D6                     u2530 08CC  
                   u3410 2E54                     u2290 36B6                     u2450 1ED4  
                   u2370 1CE2                     u4107 331E                     u3171 18BA  
                   u3091 179E                     u3331 104E                     u3251 0DE0  
                   u2531 08C8                     u3411 2E50                     u2291 36B2  
                   u2451 1ED0                     u2371 1CDE                     u3180 18EC  
                   u3340 106C                     u3260 0DF4                     u3500 23DA  
                   u2700 0AF0                     u2620 09FE                     u2540 08E2  
                   u3420 2EA4                     u2460 2A56                     u2380 1D0E  
                   u4117 332C                     u3181 18E8                     u3341 1068  
                   u3261 0DF0                     u3501 23D6                     u2701 0AEC  
                   u2621 09FA                     u2541 08DE                     u3421 2EA0  
                   u2461 2A52                     u2381 1D0A                     u3350 10B4  
                   u3270 0F6E                     u3190 0D2A                     u3430 2CB8  
                   u3510 23E8                     u2710 0B36                     u2630 0A1C  
                   u2550 08F4                     u2470 2A86                     u2390 1D24  
                   u4127 333A                     u3351 10B0                     u3191 0D26  
                   u3431 2CB4                     u3511 23E4                     u2711 0B32  
                   u2631 0A18                     u2551 08F0                     u2471 2A82  
                   u2391 1D20                     u3360 10E2                     u3280 0FC8  
                   u3440 2CEC                     u3520 2444                     u2800 0C22  
                   u2720 0B6C                     u2640 0A3C                     u2560 0904  
                   u2480 2B36                     u3600 3626                     u4137 3348  
                   u4057 34A4                     u3361 10DE                     u3281 0FC4  
                   u3521 2440                     u2801 0C1E                     u2721 0B68  
                   u2641 0A38                     u2561 0900                     u2481 2B32  
                   u3601 3622                     u3610 34E6                     u3370 111C  
                   u3290 0FE8                     u3450 2D1A                     u3530 249A  
                   u2810 0C36                     u2730 0B7C                     u2650 0A4A  
                   u2570 0940                     u2490 2B48                     u4147 3356  
                   u4067 32E0                     u3371 1118                     u3291 0FE4  
                   u3275 0F64                     u3451 2D16                     u3531 2496  
                   u2811 0C32                     u2731 0B78                     u2651 0A46  
                   u2571 093C                     u2491 2B44                     u3620 3510  
                   u3460 2D2E                     u3540 24E4                     u2820 0C50  
                   u2740 0BA8                     u2660 0A5A                     u2580 094E  
                   u3380 2DD8                     u2900 1FC2                     u4157 3364  
                   u4077 32F8                     u3461 2D2A                     u3445 2CE2  
                   u3541 24E0                     u2821 0C4C                     u2741 0BA4  
                   u2661 0A56                     u2581 094A                     u3381 2DD4  
                   u2901 1FBE                     u3630 3520                     u3470 2D56  
                   u3550 2502                     u2830 0C8A                     u2750 0BB8  
                   u2670 0A8C                     u2590 09BC                     u3390 2E16  
                   u2910 1FE6                     u4167 3372                     u4087 3308  
                   u3631 351C                     u3471 2D52                     u3551 24FE  
                   u2831 0C86                     u2751 0BB4                     u2671 0A88  
                   u2591 09B8                     u3391 2E12                     u2911 1FE2  
                   u3480 2D76                     u3560 2512                     u2840 0C9C  
                   u2760 0BD4                     u2680 0A9A                     u3640 1BEC  
                   u2920 202A                     u4177 2B86                     u4097 3316  
                   u3617 34DC                     u3481 2D72                     u3561 250E  
                   u2841 0C98                     u2761 0BD0                     u2681 0A96  
                   u3641 1BE8                     u2921 2026                     u3490 2D86  
                   u3570 2520                     u2850 0CAC                     u2770 0BE4  
                   u2690 0AB8                     u3650 1C30                     u2930 20A0  
                   u4187 2C10                     u3627 3506                     u3491 2D82  
                   u3571 251C                     u2851 0CA8                     u2771 0BE0  
                   u2691 0AB4                     u3651 1C2C                     u2931 209C  
                   u3580 255A                     u2860 0CCC                     u2780 0BF6  
                   u2940 20CC                     u4197 2C8E                     u3581 2556  
                   u2861 0CC8                     u2781 0BF2                     u2941 20C8  
                   u3590 2568                     u2870 0CDE                     u2790 0C0C  
                   u2950 20E8                     u3591 2564                     u2871 0CDA  
                   u2791 0C08                     u2951 20E4                     u2960 1580  
                   u2880 0CFA                     u2961 157C                     u2881 0CF6  
                   u2970 1592                     u2890 1F30                     u2971 158E  
                   u2891 1F2C                     u2980 15A2                     u2981 159E  
                   u2990 15E6                     u2991 15E2                     i2l77 320E  
                   _TMR2 000FCC                     abs@a 0072                     _dbuf 0100  
                   _atoi 2A20                     _main 2FB4                     _dtoa 1C52  
                   _duty 00EA                     _prec 00F0                     pad@i 0077  
                   pad@p 0074                     fsr1h 000FE2                     fsr2h 000FDA  
                   indf1 000FE7                     indf2 000FDF                     fsr1l 000FE1  
                   pad@w 0079                     fsr2l 000FD9                     btemp 005D  
                   prodh 000FF4                     prodl 000FF3             ?_enviar_dato 0001  
                   start 000E             i2___fltol@f1 002E          ___fldiv@new_exp 007F  
           ___param_bank 000000            _PWM_Init$1356 00BF                    ??_abs 0074  
                  ??_pad 0076                    ??_pid 00BC         __end_of_LCD_Init 337A  
            LCD_Out@text 0069            ___fltol@sign1 00B8       _factorDeConversion 0042  
        __end_of___aodiv 28BA                    ?_atoi 0066          __end_of___fladd 0D0E  
                  ?_main 0001                    ?_dtoa 007B          __end_of___aomod 2A20  
        __end_of___fldiv 1900          __end_of___flmul 113A          __end_of___flsub 370A  
        __end_of___fltol 2DA8                    _T2CON 000FCA                    i2l184 37C6  
                  i2l481 2FB2                    i2l802 1562                    i2l805 13F4  
                  i2l815 1524                    i2l807 146C                    i2l808 145A  
                  i2l842 272E                    i2l853 26C6                    i2l846 266A  
                  i2l839 25D2                    i2l798 11FE             vfpfcnvrt@fmt 00A0  
                  _TMR0H 000FD7                    _TMR0L 000FD6                    _TRISB 000F93  
                  _flags 00F6                    _error 00DE                    _fputc 309C  
                  _fputs 3632          __end_of_isdigit 377A             LCD_XY@column 0064  
                  atoi@n 006D                    pad@fp 0070                    atoi@s 0066  
                  _width 00EE                    _putch 3832                    dtoa@d 007D  
                  dtoa@i 009B                    dtoa@n 0093                    dtoa@p 008F  
                  dtoa@s 009D                    dtoa@w 0091                    pid@Tm 00D2  
        __end_of_isspace 36C2          __end_of_tmr0_on 382E         __end_of_PWM_Init 23C4  
       __end_of_PWM_Duty 3428                    tablat 000FF5         __end_ofi2___wmul 37C8  
                  ttemp5 005E                    ttemp6 0061                    ttemp7 0065  
                  status 000FD8                    wtemp8 005E          __end_of_sprintf 35E0  
          i2___flmul@grs 0022          __initialization 3522             __end_of_atoi 2B6E  
           __end_of_main 309C             __end_of_dtoa 1F0C                   ??_atoi 0068  
                 ??_main 00D6                   ??_dtoa 0085            __activetblptr 000002  
              ??_LCD_Cmd 0063                ??_LCD_Out 006B              ?i2___xxtofl 0007  
                 _ADCON1 000FC1                   ?_fputc 0060                   ?_fputs 0069  
                 _CCPR1L 000FBE                   ?_putch 0001                   _LCD_XY 3428  
                 i2l3711 2F02                   i2l3703 2EAE                   i2l3801 129A  
                 i2l3713 2F04                   i2l3705 2EC4                   i2l3811 12E0  
                 i2l3803 12A8                   i2l3715 2F14                   i2l3821 134E  
                 i2l3813 12FA                   i2l3805 12B4                   i2l3741 2F92  
                 i2l3725 2F3E                   i2l3717 2F18                   i2l3709 2ED8  
                 i2l3901 269C                   i2l3831 13E4                   i2l3823 1378  
                 i2l3815 130A                   i2l3807 12C4                   i2l3751 1154  
                 i2l3743 2FA2                   i2l3735 2F66                   i2l3727 2F48  
                 i2l3719 2F26                   i2l3911 26DA                   i2l3903 26A8  
                 i2l3841 1424                   i2l3833 13F2                   i2l3825 13AE  
                 i2l3817 1326                   i2l3809 12D0                   i2l3761 118C  
                 i2l3753 1156                   i2l3737 2F72                   i2l3729 2F52  
                 i2l3913 26FE                   i2l3905 26B6                   i2l3851 1496  
                 i2l3843 1452                   i2l3835 1404                   i2l3827 13BC  
                 i2l3819 1332                   i2l3771 11B8                   i2l3763 119C  
                 i2l3755 1166                   i2l3747 113A                   i2l3739 2F82  
                 i2l3915 270E                   i2l3907 26D4                   i2l3931 3194  
                 i2l3923 3172                   i2l3861 150C                   i2l3853 14C0  
                 i2l3837 1412                   i2l3829 13DA                   i2l3781 120E  
                 i2l3773 11C8                   i2l3765 11A2                   i2l3757 1176  
                 i2l3749 1146                   i2l3917 271C                   i2l3909 26D6  
                 i2l3933 319C                   i2l3925 3180                   i2l3863 1528  
                 i2l3871 154E                   i2l3847 147C                   i2l3855 14C4  
                 i2l3839 1416                   i2l3791 1248                   i2l3783 121E  
                 i2l3775 11D8                   i2l3767 11A8                   i2l3759 1186  
                 i2l3919 271E                   i2l3935 319E                   i2l3927 3184  
                 i2l3873 1552                   i2l3865 1538                   i2l3857 14DE  
                 i2l3849 1488                   i2l3793 125E                   i2l3777 11E8  
                 i2l3769 11B6                   i2l3697 37A2                   i2l3881 259C  
                 i2l3937 3204                   i2l3929 3186                   i2l3867 1546  
                 i2l3859 14F2                   i2l3795 126A                   i2l3787 1232  
                 i2l3779 11EE                   i2l3699 37BE                   i2l3891 2614  
                 i2l3883 25E2                   i2l3939 320C                   i2l3869 1548  
                 i2l3797 1282                   i2l3789 123E                   i2l3893 2620  
                 i2l3885 25F8                   i2l3877 257E                   i2l3799 128E  
                 i2l3895 2652                   i2l3879 258E                   i2l3897 2654  
                 i2l3889 260C                   i2l3899 2660            vfpfcnvrt@done 00AF  
                 _TMR0IE 007F95                   _TMR0IF 007F92         __end_of___xxtofl 257C  
                 _PV_RPM 00F2             vfprintf@cfmt 00B9                   ___flge 2DA8  
              ??___aodiv 0070                ??___fladd 00A8                ??___aomod 0070  
                 ___wmul 377A                ??___fldiv 0076                ??___flmul 008F  
              ??___flsub 00B8                ??___fltol 00B4                   _error1 00DA  
                 _error2 00D6                   clear_0 3568                   clear_1 3574  
                 isa$std 000001                   pad@buf 0072                   dtoa@fp 007B  
                 fputc@c 0060       PWM_Duty@nuevoCiclo 00C0             PWM_Init@Tosc 00C7  
                 fputs@c 006D                   fputs@i 006E             __pdataCOMRAM 003A  
           PWM_Init@Tpwm 00C3                   fputs@s 0069                ??_isdigit 0062  
      __end_ofi2___flmul 1564        __end_ofi2___fltol 2FB4        __end_of_PWM_Start 3832  
           __mediumconst 0000                ??_isspace 0062                ??_tmr0_on 0060  
         enviar_dato@cmd 0062                   tblptrh 000FF7                   tblptrl 000FF6  
                 tblptru 000FF8                   putch@c 0001         __end_of_vfprintf 3632  
              ??_sprintf 00C1           i2___flmul@aexp 0026           i2___flmul@bexp 0027  
         i2___flmul@sign 0021           i2___flmul@temp 002C           i2___flmul@prod 0028  
             ___flge@ff1 0060               ___flge@ff2 0064             ___xxtofl@arg 006A  
           ___xxtofl@exp 0069             ___xxtofl@val 0060               __accesstop 0060  
__end_of__initialization 3580           i2___fltol@exp1 0037                ?_LCD_Init 0001  
          ___rparam_used 000001               ___fltol@f1 00B0                LCD_XY@row 0067  
           ??_LCD_Chr_Cp 0063           __pcstackCOMRAM 0001             __pidataBANK0 3824  
          __end_of_fputc 3168            __end_of_fputs 367A            __end_of_putch 3834  
              ?_PWM_Init 00BA                ?_PWM_Duty 00BA                ?i2___wmul 0001  
      PWM_Init@f_trabajo 00BA             ??_INTERRUPTS 0038                  ??_fputc 0064  
                ??_fputs 006D                  ??_putch 0060       __end_of_LCD_Chr_Cp 3824  
           pid@velocidad 00B8               __pbssBANK0 00D6               __pbssBANK1 0100  
                ?_LCD_XY 0064               ??_LCD_Init 0063            LCD_Out@column 0068  
     __end_of_INTERRUPTS 321A                  ?___flge 0060                  ?___wmul 0060  
             _flagTimer0 005A               ??_PWM_Init 00BD               ??_PWM_Duty 00BE  
             ??i2___wmul 0005                  _LCD_Cmd 3800                  _LCD_Out 34B2  
              ?___xxtofl 0060                  __Hparam 0000                  __Lparam 0000  
                ___aodiv 2730                  ___fladd 084C                  ___aomod 28BA  
                ___fldiv 1564                  ___flmul 0D0E                  ___flsub 36C2  
                ___fltol 2CA0                ?_vfprintf 00B3             __psmallconst 0800  
                __pcinit 3522                  __ramtop 0800                  __ptext0 2FB4  
                __ptext1 382A                  __ptext2 37E8                  __ptext3 358E  
                __ptext4 35E0                  __ptext5 1F0C                  __ptext6 1C52  
                __ptext7 321A                  __ptext8 3632                  __ptext9 309C  
              _T0CONbits 000FD5                _T2CONbits 000FCA                  _isdigit 374C  
           ??i2___xxtofl 000B               ??___xxtofl 0064                  _isspace 367A  
                _tmr0_on 382A                  atoi@neg 006B                  _sprintf 358E  
         __pintcode_body 3168     end_of_initialization 3580        __end_of_tmr0_init 3800  
                fputc@fp 0062            __Lmediumconst 0000                  int_func 3168  
                fputs@fp 006B      i2___wmul@multiplier 0001           i2___xxtofl@arg 0011  
         i2___xxtofl@exp 0010           i2___xxtofl@val 0007            PWM_Init@press 00CB  
      __end_of_vfpfcnvrt 21AC       __end_ofi2___xxtofl 2730                  postdec1 000FE5  
                postdec2 000FDD                  postinc0 000FEE                  postinc1 000FE6  
                postinc2 000FDE         vfpfcnvrt@convarg 00A7               ??_vfprintf 00B9  
            ___fladd@grs 00AF            ___xxtofl@sign 0068                _TRISCbits 000F94  
              _TRISDbits 000F95              ___fldiv@grs 0081              ___fldiv@rem 007A  
        i2___fltol@sign1 0036                i2___flmul 113A                i2___fltol 2EAE  
              _PWM_Start 382E              ___flmul@grs 0094               LCD_Cmd@cmd 0063  
         __end_of_LCD_XY 34B2              _CCP1CONbits 000FBD               LCD_Out@row 006B  
         __end_of___flge 2EAE              vfpfcnvrt@ap 00A2              vfpfcnvrt@cp 00B1  
            vfpfcnvrt@fp 009E           __end_of___wmul 37A2            __pidataCOMRAM 37C8  
       i2___wmul@product 0005      start_initialization 3522              __end_of_abs 374C  
            __end_of_pad 32CA              __end_of_pid 1C52               ?i2___flmul 0015  
             ?i2___fltol 002E               ?_PWM_Start 0001                 ??_LCD_XY 0065  
          ??_enviar_dato 0060              vfprintf@fmt 00B5                 ??___flge 0068  
               ??___wmul 0064              __pdataBANK0 00F7                ___fladd@a 00A4  
              ___fladd@b 00A0                 ?_LCD_Cmd 0001                ___fldiv@a 0072  
              ___fldiv@b 006E                 ?_LCD_Out 0068                ___flmul@a 008B  
              ___flmul@b 0087              __pbssCOMRAM 005A                ___flsub@a 00B4  
              ___flsub@b 00B0            __pcstackBANK0 0060         ___aodiv@dividend 0060  
              _dtoa$1055 008D                __pintcode 0008                 ?___aodiv 0060  
               ?___fladd 00A0                 ?___aomod 0060                 ?___fldiv 006E  
       ___aodiv@quotient 0072                 ?___flmul 0087                 ?___flsub 00B0  
               ?___fltol 00B0                _reg10bits 00F4      __end_of_enviar_dato 2CA0  
            __smallconst 0800                 ?_isdigit 0060                 ?_isspace 0060  
               ?_tmr0_on 0001          LCD_Chr_Cp@letra 0063       PWM_Init@pre_config 00BC  
               ?_sprintf 00BB              ??i2___flmul 001D              ??i2___fltol 0032  
            ??_PWM_Start 0060                 _LCD_Init 32CA           ___wmul@product 0064  
               _LATDbits 000F8C                _tmr0_init 37E8                 i2u400_40 270E  
               i2u400_41 270A                 i2u401_40 271C                 i2u401_41 2718  
               i2u402_40 3180                 i2u402_41 317C                 i2u403_40 3194  
               i2u403_41 3190                 i2u370_40 2F62                 i2u370_41 2F5E  
               i2u371_40 2F82                 i2u371_41 2F7E                 i2u380_40 121E  
               i2u372_40 2F92                 i2u380_41 121A                 i2u372_41 2F8E  
               i2u381_40 1398                 i2u373_40 1154                 i2u373_41 1150  
               i2u381_45 138E                 i2u390_40 150C                 i2u382_40 13F2  
               i2u374_40 1166                 i2u366_40 2EC4                 i2u390_41 1508  
               i2u382_41 13EE                 i2u374_41 1162                 i2u366_41 2EC0  
               i2u391_40 1546                 i2u383_40 1412                 i2u375_40 1176  
               i2u367_40 2EF8                 i2u391_41 1542                 i2u383_41 140E  
               i2u375_41 1172                 i2u367_45 2EEE                 i2u384_40 1424  
               i2u376_40 11B6                 i2u368_40 2F26                 i2u392_40 258E  
               i2u384_41 1420                 i2u376_41 11B2                 i2u368_41 2F22  
               i2u392_41 258A                 i2u385_40 1452                 i2u377_40 11C8  
               i2u369_40 2F3A                 i2u393_40 259C                 i2u385_41 144E  
               i2u377_41 11C4                 i2u369_41 2F36                 i2u393_41 2598  
               i2u386_40 1468                 i2u378_40 11D8                 i2u394_40 25F8  
               i2u386_41 1464                 i2u378_41 11D4                 i2u394_41 25F4  
               i2u387_40 147C                 i2u379_40 120E                 i2u395_40 264E  
               i2u387_41 1478                 i2u379_41 120A                 i2u395_41 264A  
               i2u388_40 1496                 i2u396_40 2698                 i2u388_41 1492  
               i2u396_41 2694                 i2u389_40 14DE                 i2u397_40 26B6  
               i2u389_41 14DA                 i2u397_41 26B2                 i2u398_40 26C6  
               i2u398_41 26C2                 i2u399_40 26D4                 i2u399_41 26D0  
              _vfpfcnvrt 1F0C                 _PWM_Init 21AC                 _PWM_Duty 337A  
      ___wmul@multiplier 0060                 i2___wmul 37A2             _isspace$1104 0064  
            _INTCON2bits 000FF1                copy_data0 3536                copy_data1 3556  
             ?_tmr0_init 0001              _enviar_dato 2B6E                 __Hrparam 0000  
             vfprintf@ap 00B7                 __Lrparam 0000               vfprintf@fp 00B3  
  i2___wmul@multiplicand 0003               ?_vfpfcnvrt 009E          ___aodiv@divisor 0068  
        ___aodiv@counter 0070               sprintf@fmt 00BD                 _pid$1415 00BE  
               _pid$1416 00C2                 _pid$1417 00C6                 _pid$1354 00CA  
               _pid$1355 00CE                 ___xxtofl 23C4                 __ptext10 3832  
               __ptext11 370A                 __ptext20 2DA8                 __ptext12 28BA  
               __ptext21 382E                 __ptext13 2730                 __ptext30 3428  
               __ptext22 21AC                 __ptext14 2A20                 __ptext31 3800  
               __ptext23 084C                 __ptext15 367A                 __ptext32 3812  
               __ptext24 337A                 __ptext16 374C                 __ptext33 32CA  
               __ptext25 23C4                 __ptext17 377A                 __ptext34 2B6E  
               __ptext26 2CA0                 __ptext18 1900                 __ptext27 0D0E  
               __ptext19 36C2                 __ptext36 257C                 __ptext28 1564  
               __ptext37 37A2                 __ptext29 34B2                 __ptext38 2EAE  
               __ptext39 113A                 _contador 005B               _LCD_Chr_Cp 3812  
               isa$xinst 000000                 int$flags 005D                 _vfprintf 35E0  
        PWM_Duty@ciclo_t 00BA         ___aomod@dividend 0060               _INTERRUPTS 0008  
             _INTCONbits 000FF2                 isdigit@c 0060                 intlevel2 0000  
              sprintf@ap 00C1          i2___xxtofl@sign 000F                 isspace@c 0060  
            ??_tmr0_init 0060          ___aomod@divisor 0068              ??_vfpfcnvrt 00A4  
        ___aomod@counter 0070             _setpoint_rpm 00FB                 sprintf@f 00C3  
               sprintf@s 00BB            ___fladd@signs 00AC             ___aodiv@sign 0071  
           ___fladd@aexp 00AD             ___fladd@bexp 00AE             ___aomod@sign 0071  
